; ModuleID = 'streamcluster_original.cpp'
source_filename = "streamcluster_original.cpp"
target datalayout = "e-m:e-p270:32:32-p271:32:32-p272:64:64-i64:64-f80:128-n8:16:32:64-S128"
target triple = "x86_64-pc-linux-gnu"

%union.pthread_mutex_t = type { %struct.__pthread_mutex_s }
%struct.__pthread_mutex_s = type { i32, i32, i32, i32, i32, i16, i16, %struct.__pthread_internal_list }
%struct.__pthread_internal_list = type { %struct.__pthread_internal_list*, %struct.__pthread_internal_list* }
%union.pthread_cond_t = type { %struct.__pthread_cond_s }
%struct.__pthread_cond_s = type { %union.anon, %union.anon.0, [2 x i32], [2 x i32], i32, i32, [2 x i32] }
%union.anon = type { i64 }
%union.anon.0 = type { i64 }
%struct._IO_FILE = type { i32, i8*, i8*, i8*, i8*, i8*, i8*, i8*, i8*, i8*, i8*, i8*, %struct._IO_marker*, %struct._IO_FILE*, i32, i32, i64, i16, i8, [1 x i8], i8*, i64, %struct._IO_codecvt*, %struct._IO_wide_data*, %struct._IO_FILE*, i8*, i64, i32, [20 x i8] }
%struct._IO_marker = type opaque
%struct._IO_codecvt = type opaque
%struct._IO_wide_data = type opaque
%"class.std::ios_base::Init" = type { i8 }
%struct.timeval = type { i64, i64 }
%struct.Points = type { i64, i32, %struct.Point* }
%struct.Point = type { float, float*, i64, float }
%union.pthread_barrier_t = type { i64, [24 x i8] }
%union.pthread_barrierattr_t = type { i32 }
%struct.pkmedian_arg_t = type { %struct.Points*, i64, i64, i64*, i32, %union.pthread_barrier_t* }
%union.pthread_attr_t = type { i64, [48 x i8] }
%class.PStream = type { i32 (...)** }
%class.SimStream = type { %class.PStream, i64 }
%class.FileStream = type { %class.PStream, %struct._IO_FILE* }

$_ZN9SimStream4readEPfii = comdat any

$_ZN9SimStream6ferrorEv = comdat any

$_ZN9SimStream4feofEv = comdat any

$_ZN9SimStreamD0Ev = comdat any

$_ZN7PStreamD2Ev = comdat any

$_ZN10FileStream4readEPfii = comdat any

$_ZN10FileStream6ferrorEv = comdat any

$_ZN10FileStream4feofEv = comdat any

$_ZN10FileStreamD2Ev = comdat any

$_ZN10FileStreamD0Ev = comdat any

$_ZTV9SimStream = comdat any

$_ZTS9SimStream = comdat any

$_ZTS7PStream = comdat any

$_ZTI7PStream = comdat any

$_ZTI9SimStream = comdat any

$_ZTV10FileStream = comdat any

$_ZTS10FileStream = comdat any

$_ZTI10FileStream = comdat any

@_ZL5nproc = internal unnamed_addr global i32 0, align 4, !dbg !0
@_ZZ7pspeedyP6PointsfPliP17pthread_barrier_tE9totalcost = internal unnamed_addr global double 0.000000e+00, align 8, !dbg !233
@_ZZ7pspeedyP6PointsfPliP17pthread_barrier_tE4open = internal unnamed_addr global i1 false, align 1, !dbg !1683
@_ZZ7pspeedyP6PointsfPliP17pthread_barrier_tE5costs = internal unnamed_addr global double* null, align 8, !dbg !281
@_ZZ7pspeedyP6PointsfPliP17pthread_barrier_tE1i = internal unnamed_addr global i32 0, align 4, !dbg !283
@_ZZ7pspeedyP6PointsfPliP17pthread_barrier_tE5mutex = internal global %union.pthread_mutex_t zeroinitializer, align 8, !dbg !285
@_ZZ7pspeedyP6PointsfPliP17pthread_barrier_tE4cond = internal global %union.pthread_cond_t zeroinitializer, align 8, !dbg !288
@_ZZ5pgainlP6PointsdPliP17pthread_barrier_tE8work_mem = internal unnamed_addr global double* null, align 8, !dbg !291
@_ZZ5pgainlP6PointsdPliP17pthread_barrier_tE20gl_cost_of_opening_x = internal unnamed_addr global double 0.000000e+00, align 8, !dbg !357
@_ZZ5pgainlP6PointsdPliP17pthread_barrier_tE29gl_number_of_centers_to_close = internal unnamed_addr global i32 0, align 4, !dbg !359
@_ZL9is_center = internal unnamed_addr global i8* null, align 8, !dbg !429
@_ZL12center_table = internal unnamed_addr global i32* null, align 8, !dbg !431
@_ZL17switch_membership = internal unnamed_addr global i8* null, align 8, !dbg !433
@_ZZ8pkmedianP6PointsllPliP17pthread_barrier_tE1k = internal global i64 0, align 8, !dbg !361
@_ZZ8pkmedianP6PointsllPliP17pthread_barrier_tE8feasible = internal global i32* null, align 8, !dbg !397
@_ZZ8pkmedianP6PointsllPliP17pthread_barrier_tE11numfeasible = internal unnamed_addr global i32 0, align 4, !dbg !399
@_ZZ8pkmedianP6PointsllPliP17pthread_barrier_tE4hizs = internal unnamed_addr global double* null, align 8, !dbg !401
@.str = private unnamed_addr constant [2 x i8] c"w\00", align 1
@stderr = external dso_local local_unnamed_addr global %struct._IO_FILE*, align 8
@.str.1 = private unnamed_addr constant [18 x i8] c"error opening %s\0A\00", align 1
@.str.2 = private unnamed_addr constant [4 x i8] c"%u\0A\00", align 1
@.str.3 = private unnamed_addr constant [5 x i8] c"%lf\0A\00", align 1
@.str.4 = private unnamed_addr constant [5 x i8] c"%lf \00", align 1
@.str.5 = private unnamed_addr constant [3 x i8] c"\0A\0A\00", align 1
@.str.6 = private unnamed_addr constant [32 x i8] c"not enough memory for a chunk!\0A\00", align 1
@.str.7 = private unnamed_addr constant [16 x i8] c"read %d points\0A\00", align 1
@.str.8 = private unnamed_addr constant [21 x i8] c"error reading data!\0A\00", align 1
@.str.9 = private unnamed_addr constant [21 x i8] c"finish local search\0A\00", align 1
@.str.10 = private unnamed_addr constant [33 x i8] c"oops! no more space for centers\0A\00", align 1
@.str.12 = private unnamed_addr constant [64 x i8] c"usage: %s k1 k2 d n chunksize clustersize infile outfile nproc\0A\00", align 1
@.str.13 = private unnamed_addr constant [47 x i8] c"  k1:          Min. number of centers allowed\0A\00", align 1
@.str.14 = private unnamed_addr constant [47 x i8] c"  k2:          Max. number of centers allowed\0A\00", align 1
@.str.15 = private unnamed_addr constant [45 x i8] c"  d:           Dimension of each data point\0A\00", align 1
@.str.16 = private unnamed_addr constant [38 x i8] c"  n:           Number of data points\0A\00", align 1
@.str.17 = private unnamed_addr constant [57 x i8] c"  chunksize:   Number of data points to handle per step\0A\00", align 1
@.str.18 = private unnamed_addr constant [55 x i8] c"  clustersize: Maximum number of intermediate centers\0A\00", align 1
@.str.19 = private unnamed_addr constant [37 x i8] c"  infile:      Input file (if n<=0)\0A\00", align 1
@.str.20 = private unnamed_addr constant [28 x i8] c"  outfile:     Output file\0A\00", align 1
@.str.21 = private unnamed_addr constant [41 x i8] c"  nproc:       Number of threads to use\0A\00", align 1
@.str.23 = private unnamed_addr constant [77 x i8] c"if n > 0, points will be randomly generated instead of reading from infile.\0A\00", align 1
@.str.24 = private unnamed_addr constant [12 x i8] c"time = %lf\0A\00", align 1
@_ZStL8__ioinit = internal global %"class.std::ios_base::Init" zeroinitializer, align 1, !dbg !403
@__dso_handle = external hidden global i8
@_ZTV9SimStream = linkonce_odr dso_local unnamed_addr constant { [7 x i8*] } { [7 x i8*] [i8* null, i8* bitcast ({ i8*, i8*, i8* }* @_ZTI9SimStream to i8*), i8* bitcast (i64 (%class.SimStream*, float*, i32, i32)* @_ZN9SimStream4readEPfii to i8*), i8* bitcast (i32 (%class.SimStream*)* @_ZN9SimStream6ferrorEv to i8*), i8* bitcast (i32 (%class.SimStream*)* @_ZN9SimStream4feofEv to i8*), i8* bitcast (void (%class.PStream*)* @_ZN7PStreamD2Ev to i8*), i8* bitcast (void (%class.SimStream*)* @_ZN9SimStreamD0Ev to i8*)] }, comdat, align 8
@_ZTVN10__cxxabiv120__si_class_type_infoE = external dso_local global i8*
@_ZTS9SimStream = linkonce_odr dso_local constant [11 x i8] c"9SimStream\00", comdat, align 1
@_ZTVN10__cxxabiv117__class_type_infoE = external dso_local global i8*
@_ZTS7PStream = linkonce_odr dso_local constant [9 x i8] c"7PStream\00", comdat, align 1
@_ZTI7PStream = linkonce_odr dso_local constant { i8*, i8* } { i8* bitcast (i8** getelementptr inbounds (i8*, i8** @_ZTVN10__cxxabiv117__class_type_infoE, i64 2) to i8*), i8* getelementptr inbounds ([9 x i8], [9 x i8]* @_ZTS7PStream, i32 0, i32 0) }, comdat, align 8
@_ZTI9SimStream = linkonce_odr dso_local constant { i8*, i8*, i8* } { i8* bitcast (i8** getelementptr inbounds (i8*, i8** @_ZTVN10__cxxabiv120__si_class_type_infoE, i64 2) to i8*), i8* getelementptr inbounds ([11 x i8], [11 x i8]* @_ZTS9SimStream, i32 0, i32 0), i8* bitcast ({ i8*, i8* }* @_ZTI7PStream to i8*) }, comdat, align 8
@_ZTV10FileStream = linkonce_odr dso_local unnamed_addr constant { [7 x i8*] } { [7 x i8*] [i8* null, i8* bitcast ({ i8*, i8*, i8* }* @_ZTI10FileStream to i8*), i8* bitcast (i64 (%class.FileStream*, float*, i32, i32)* @_ZN10FileStream4readEPfii to i8*), i8* bitcast (i32 (%class.FileStream*)* @_ZN10FileStream6ferrorEv to i8*), i8* bitcast (i32 (%class.FileStream*)* @_ZN10FileStream4feofEv to i8*), i8* bitcast (void (%class.FileStream*)* @_ZN10FileStreamD2Ev to i8*), i8* bitcast (void (%class.FileStream*)* @_ZN10FileStreamD0Ev to i8*)] }, comdat, align 8
@.str.25 = private unnamed_addr constant [3 x i8] c"rb\00", align 1
@.str.26 = private unnamed_addr constant [24 x i8] c"error opening file %s\0A.\00", align 1
@_ZTS10FileStream = linkonce_odr dso_local constant [13 x i8] c"10FileStream\00", comdat, align 1
@_ZTI10FileStream = linkonce_odr dso_local constant { i8*, i8*, i8* } { i8* bitcast (i8** getelementptr inbounds (i8*, i8** @_ZTVN10__cxxabiv120__si_class_type_infoE, i64 2) to i8*), i8* getelementptr inbounds ([13 x i8], [13 x i8]* @_ZTS10FileStream, i32 0, i32 0), i8* bitcast ({ i8*, i8* }* @_ZTI7PStream to i8*) }, comdat, align 8
@llvm.global_ctors = appending global [1 x { i32, void ()*, i8* }] [{ i32, void ()*, i8* } { i32 65535, void ()* @_GLOBAL__sub_I_streamcluster_original.cpp, i8* null }]
@str = private unnamed_addr constant [23 x i8] c"PARSEC Benchmark Suite\00", align 1
@str.28 = private unnamed_addr constant [20 x i8] c"closing file stream\00", align 1

; Function Attrs: nounwind uwtable
define dso_local double @_Z7gettimev() local_unnamed_addr #0 !dbg !1688 {
  %1 = alloca %struct.timeval, align 8
  %2 = bitcast %struct.timeval* %1 to i8*, !dbg !1693
  call void @llvm.lifetime.start.p0i8(i64 16, i8* nonnull %2) #15, !dbg !1693
  call void @llvm.dbg.declare(metadata %struct.timeval* %1, metadata !1692, metadata !DIExpression()), !dbg !1694
  %3 = call i32 @gettimeofday(%struct.timeval* nonnull %1, i8* null) #15, !dbg !1695
  %4 = getelementptr inbounds %struct.timeval, %struct.timeval* %1, i64 0, i32 0, !dbg !1696
  %5 = load i64, i64* %4, align 8, !dbg !1696, !tbaa !1697
  %6 = sitofp i64 %5 to double, !dbg !1702
  %7 = getelementptr inbounds %struct.timeval, %struct.timeval* %1, i64 0, i32 1, !dbg !1703
  %8 = load i64, i64* %7, align 8, !dbg !1703, !tbaa !1704
  %9 = sitofp i64 %8 to double, !dbg !1705
  %10 = fmul double %9, 0x3EB0C6F7A0B5ED8D, !dbg !1706
  %11 = fadd double %10, %6, !dbg !1707
  call void @llvm.lifetime.end.p0i8(i64 16, i8* nonnull %2) #15, !dbg !1708
  ret double %11, !dbg !1709
}

; Function Attrs: argmemonly nounwind willreturn
declare void @llvm.lifetime.start.p0i8(i64 immarg, i8* nocapture) #1

; Function Attrs: nounwind readnone speculatable willreturn
declare void @llvm.dbg.declare(metadata, metadata, metadata) #2

; Function Attrs: nofree nounwind
declare !dbg !6 dso_local i32 @gettimeofday(%struct.timeval* nocapture, i8* nocapture) local_unnamed_addr #3

; Function Attrs: argmemonly nounwind willreturn
declare void @llvm.lifetime.end.p0i8(i64 immarg, i8* nocapture) #1

; Function Attrs: norecurse nounwind readonly uwtable
define dso_local i32 @_Z11isIdenticalPfS_i(float* nocapture readonly %0, float* nocapture readonly %1, i32 %2) local_unnamed_addr #4 !dbg !1710 {
  call void @llvm.dbg.value(metadata float* %0, metadata !1714, metadata !DIExpression()), !dbg !1719
  call void @llvm.dbg.value(metadata float* %1, metadata !1715, metadata !DIExpression()), !dbg !1719
  call void @llvm.dbg.value(metadata i32 %2, metadata !1716, metadata !DIExpression()), !dbg !1719
  call void @llvm.dbg.value(metadata i32 0, metadata !1717, metadata !DIExpression()), !dbg !1719
  call void @llvm.dbg.value(metadata i32 1, metadata !1718, metadata !DIExpression()), !dbg !1719
  %4 = icmp sgt i32 %2, 0, !dbg !1720
  br i1 %4, label %5, label %23, !dbg !1721

5:                                                ; preds = %3, %5
  %6 = phi i32 [ %17, %5 ], [ 1, %3 ]
  %7 = phi i32 [ %16, %5 ], [ 0, %3 ]
  call void @llvm.dbg.value(metadata i32 %6, metadata !1718, metadata !DIExpression()), !dbg !1719
  call void @llvm.dbg.value(metadata i32 %7, metadata !1717, metadata !DIExpression()), !dbg !1719
  %8 = zext i32 %7 to i64, !dbg !1722
  %9 = getelementptr inbounds float, float* %0, i64 %8, !dbg !1722
  %10 = load float, float* %9, align 4, !dbg !1722, !tbaa !1725
  %11 = getelementptr inbounds float, float* %1, i64 %8, !dbg !1727
  %12 = load float, float* %11, align 4, !dbg !1727, !tbaa !1725
  %13 = fcmp une float %10, %12, !dbg !1728
  %14 = xor i1 %13, true, !dbg !1729
  %15 = zext i1 %14 to i32, !dbg !1729
  %16 = add nuw nsw i32 %7, %15, !dbg !1729
  %17 = select i1 %13, i32 0, i32 %6, !dbg !1729
  call void @llvm.dbg.value(metadata i32 %17, metadata !1718, metadata !DIExpression()), !dbg !1719
  call void @llvm.dbg.value(metadata i32 %16, metadata !1717, metadata !DIExpression()), !dbg !1719
  %18 = icmp ne i32 %17, 0, !dbg !1730
  %19 = icmp slt i32 %16, %2, !dbg !1720
  %20 = and i1 %19, %18, !dbg !1720
  br i1 %20, label %5, label %21, !dbg !1721, !llvm.loop !1731

21:                                               ; preds = %5
  %22 = zext i1 %18 to i32, !dbg !1733
  br label %23, !dbg !1733

23:                                               ; preds = %21, %3
  %24 = phi i32 [ 1, %3 ], [ %22, %21 ]
  ret i32 %24, !dbg !1735
}

; Function Attrs: nounwind uwtable
define dso_local void @_Z7shuffleP6Points(%struct.Points* nocapture readonly %0) local_unnamed_addr #0 !dbg !1736 {
  %2 = alloca %struct.Point, align 8
  call void @llvm.dbg.value(metadata %struct.Points* %0, metadata !1740, metadata !DIExpression()), !dbg !1744
  %3 = bitcast %struct.Point* %2 to i8*, !dbg !1745
  call void @llvm.lifetime.start.p0i8(i64 32, i8* nonnull %3), !dbg !1745
  call void @llvm.dbg.declare(metadata %struct.Point* %2, metadata !1743, metadata !DIExpression()), !dbg !1746
  call void @llvm.dbg.value(metadata i64 0, metadata !1741, metadata !DIExpression()), !dbg !1744
  %4 = getelementptr inbounds %struct.Points, %struct.Points* %0, i64 0, i32 0, !dbg !1747
  %5 = load i64, i64* %4, align 8, !dbg !1747, !tbaa !1750
  %6 = icmp sgt i64 %5, 1, !dbg !1754
  br i1 %6, label %7, label %28, !dbg !1755

7:                                                ; preds = %1
  %8 = getelementptr inbounds %struct.Points, %struct.Points* %0, i64 0, i32 2, !dbg !1756
  br label %9, !dbg !1755

9:                                                ; preds = %7, %9
  %10 = phi i64 [ 0, %7 ], [ %24, %9 ]
  call void @llvm.dbg.value(metadata i64 %10, metadata !1741, metadata !DIExpression()), !dbg !1744
  %11 = tail call i64 @lrand48() #15, !dbg !1758
  %12 = load i64, i64* %4, align 8, !dbg !1759, !tbaa !1750
  %13 = sub nsw i64 %12, %10, !dbg !1760
  %14 = srem i64 %11, %13, !dbg !1761
  %15 = add nsw i64 %14, %10, !dbg !1762
  call void @llvm.dbg.value(metadata i64 %15, metadata !1742, metadata !DIExpression()), !dbg !1744
  %16 = load %struct.Point*, %struct.Point** %8, align 8, !dbg !1763, !tbaa !1764
  %17 = getelementptr inbounds %struct.Point, %struct.Point* %16, i64 %10, !dbg !1765
  %18 = bitcast %struct.Point* %17 to i8*, !dbg !1766
  call void @llvm.memcpy.p0i8.p0i8.i64(i8* nonnull align 8 dereferenceable(32) %3, i8* nonnull align 8 dereferenceable(32) %18, i64 32, i1 false), !dbg !1766, !tbaa.struct !1767
  %19 = getelementptr inbounds %struct.Point, %struct.Point* %16, i64 %15, !dbg !1770
  %20 = bitcast %struct.Point* %19 to i8*, !dbg !1771
  tail call void @llvm.memcpy.p0i8.p0i8.i64(i8* nonnull align 8 dereferenceable(32) %18, i8* nonnull align 8 dereferenceable(32) %20, i64 32, i1 false), !dbg !1771, !tbaa.struct !1767
  %21 = load %struct.Point*, %struct.Point** %8, align 8, !dbg !1772, !tbaa !1764
  %22 = getelementptr inbounds %struct.Point, %struct.Point* %21, i64 %15, !dbg !1773
  %23 = bitcast %struct.Point* %22 to i8*, !dbg !1774
  call void @llvm.memcpy.p0i8.p0i8.i64(i8* nonnull align 8 dereferenceable(32) %23, i8* nonnull align 8 dereferenceable(32) %3, i64 32, i1 false), !dbg !1774, !tbaa.struct !1767
  %24 = add nuw nsw i64 %10, 1, !dbg !1775
  call void @llvm.dbg.value(metadata i64 %24, metadata !1741, metadata !DIExpression()), !dbg !1744
  %25 = load i64, i64* %4, align 8, !dbg !1747, !tbaa !1750
  %26 = add nsw i64 %25, -1, !dbg !1776
  %27 = icmp slt i64 %24, %26, !dbg !1754
  br i1 %27, label %9, label %28, !dbg !1755, !llvm.loop !1777

28:                                               ; preds = %9, %1
  call void @llvm.lifetime.end.p0i8(i64 32, i8* nonnull %3), !dbg !1779
  ret void, !dbg !1779
}

; Function Attrs: nounwind
declare !dbg !23 dso_local i64 @lrand48() local_unnamed_addr #5

; Function Attrs: argmemonly nounwind willreturn
declare void @llvm.memcpy.p0i8.p0i8.i64(i8* noalias nocapture writeonly, i8* noalias nocapture readonly, i64, i1 immarg) #1

; Function Attrs: nounwind uwtable
define dso_local void @_Z10intshufflePii(i32* nocapture %0, i32 %1) local_unnamed_addr #0 !dbg !1780 {
  call void @llvm.dbg.value(metadata i32* %0, metadata !1784, metadata !DIExpression()), !dbg !1789
  call void @llvm.dbg.value(metadata i32 %1, metadata !1785, metadata !DIExpression()), !dbg !1789
  call void @llvm.dbg.value(metadata i64 0, metadata !1786, metadata !DIExpression()), !dbg !1789
  %3 = sext i32 %1 to i64, !dbg !1790
  %4 = icmp sgt i32 %1, 0, !dbg !1793
  br i1 %4, label %5, label %17, !dbg !1794

5:                                                ; preds = %2, %5
  %6 = phi i64 [ %15, %5 ], [ 0, %2 ]
  call void @llvm.dbg.value(metadata i64 %6, metadata !1786, metadata !DIExpression()), !dbg !1789
  %7 = tail call i64 @lrand48() #15, !dbg !1795
  %8 = sub nsw i64 %3, %6, !dbg !1797
  %9 = srem i64 %7, %8, !dbg !1798
  %10 = add nsw i64 %9, %6, !dbg !1799
  call void @llvm.dbg.value(metadata i64 %10, metadata !1787, metadata !DIExpression()), !dbg !1789
  %11 = getelementptr inbounds i32, i32* %0, i64 %6, !dbg !1800
  %12 = load i32, i32* %11, align 4, !dbg !1800, !tbaa !1801
  call void @llvm.dbg.value(metadata i32 %12, metadata !1788, metadata !DIExpression()), !dbg !1789
  %13 = getelementptr inbounds i32, i32* %0, i64 %10, !dbg !1802
  %14 = load i32, i32* %13, align 4, !dbg !1802, !tbaa !1801
  store i32 %14, i32* %11, align 4, !dbg !1803, !tbaa !1801
  store i32 %12, i32* %13, align 4, !dbg !1804, !tbaa !1801
  %15 = add nuw nsw i64 %6, 1, !dbg !1805
  call void @llvm.dbg.value(metadata i64 %15, metadata !1786, metadata !DIExpression()), !dbg !1789
  %16 = icmp eq i64 %15, %3, !dbg !1793
  br i1 %16, label %17, label %5, !dbg !1794, !llvm.loop !1806

17:                                               ; preds = %5, %2
  ret void, !dbg !1808
}

; Function Attrs: norecurse nounwind readonly uwtable
define dso_local float @_Z4dist5PointS_i(%struct.Point* nocapture readonly byval(%struct.Point) align 8 %0, %struct.Point* nocapture readonly byval(%struct.Point) align 8 %1, i32 %2) local_unnamed_addr #4 !dbg !1809 {
  call void @llvm.dbg.declare(metadata %struct.Point* %0, metadata !1813, metadata !DIExpression()), !dbg !1818
  call void @llvm.dbg.declare(metadata %struct.Point* %1, metadata !1814, metadata !DIExpression()), !dbg !1819
  call void @llvm.dbg.value(metadata i32 %2, metadata !1815, metadata !DIExpression()), !dbg !1820
  call void @llvm.dbg.value(metadata float 0.000000e+00, metadata !1817, metadata !DIExpression()), !dbg !1820
  call void @llvm.dbg.value(metadata i32 0, metadata !1816, metadata !DIExpression()), !dbg !1820
  %4 = icmp sgt i32 %2, 0, !dbg !1821
  br i1 %4, label %5, label %73, !dbg !1824

5:                                                ; preds = %3
  %6 = getelementptr inbounds %struct.Point, %struct.Point* %0, i64 0, i32 1, !dbg !1825
  %7 = load float*, float** %6, align 8, !dbg !1825, !tbaa !1826
  %8 = getelementptr inbounds %struct.Point, %struct.Point* %1, i64 0, i32 1, !dbg !1825
  %9 = load float*, float** %8, align 8, !dbg !1825, !tbaa !1826
  %10 = zext i32 %2 to i64, !dbg !1821
  %11 = add nsw i64 %10, -1, !dbg !1824
  %12 = and i64 %10, 3, !dbg !1824
  %13 = icmp ult i64 %11, 3, !dbg !1824
  br i1 %13, label %54, label %14, !dbg !1824

14:                                               ; preds = %5
  %15 = sub nsw i64 %10, %12, !dbg !1824
  br label %16, !dbg !1824

16:                                               ; preds = %16, %14
  %17 = phi i64 [ 0, %14 ], [ %51, %16 ]
  %18 = phi float [ 0.000000e+00, %14 ], [ %50, %16 ]
  %19 = phi i64 [ %15, %14 ], [ %52, %16 ]
  call void @llvm.dbg.value(metadata float %18, metadata !1817, metadata !DIExpression()), !dbg !1820
  call void @llvm.dbg.value(metadata i64 %17, metadata !1816, metadata !DIExpression()), !dbg !1820
  %20 = getelementptr inbounds float, float* %7, i64 %17, !dbg !1828
  %21 = load float, float* %20, align 4, !dbg !1828, !tbaa !1725
  %22 = getelementptr inbounds float, float* %9, i64 %17, !dbg !1829
  %23 = load float, float* %22, align 4, !dbg !1829, !tbaa !1725
  %24 = fsub float %21, %23, !dbg !1830
  %25 = fmul float %24, %24, !dbg !1831
  %26 = fadd float %18, %25, !dbg !1832
  call void @llvm.dbg.value(metadata float %26, metadata !1817, metadata !DIExpression()), !dbg !1820
  %27 = or i64 %17, 1, !dbg !1833
  call void @llvm.dbg.value(metadata i64 %27, metadata !1816, metadata !DIExpression()), !dbg !1820
  %28 = getelementptr inbounds float, float* %7, i64 %27, !dbg !1828
  %29 = load float, float* %28, align 4, !dbg !1828, !tbaa !1725
  %30 = getelementptr inbounds float, float* %9, i64 %27, !dbg !1829
  %31 = load float, float* %30, align 4, !dbg !1829, !tbaa !1725
  %32 = fsub float %29, %31, !dbg !1830
  %33 = fmul float %32, %32, !dbg !1831
  %34 = fadd float %26, %33, !dbg !1832
  call void @llvm.dbg.value(metadata float %34, metadata !1817, metadata !DIExpression()), !dbg !1820
  %35 = or i64 %17, 2, !dbg !1833
  call void @llvm.dbg.value(metadata i64 %35, metadata !1816, metadata !DIExpression()), !dbg !1820
  %36 = getelementptr inbounds float, float* %7, i64 %35, !dbg !1828
  %37 = load float, float* %36, align 4, !dbg !1828, !tbaa !1725
  %38 = getelementptr inbounds float, float* %9, i64 %35, !dbg !1829
  %39 = load float, float* %38, align 4, !dbg !1829, !tbaa !1725
  %40 = fsub float %37, %39, !dbg !1830
  %41 = fmul float %40, %40, !dbg !1831
  %42 = fadd float %34, %41, !dbg !1832
  call void @llvm.dbg.value(metadata float %42, metadata !1817, metadata !DIExpression()), !dbg !1820
  %43 = or i64 %17, 3, !dbg !1833
  call void @llvm.dbg.value(metadata i64 %43, metadata !1816, metadata !DIExpression()), !dbg !1820
  %44 = getelementptr inbounds float, float* %7, i64 %43, !dbg !1828
  %45 = load float, float* %44, align 4, !dbg !1828, !tbaa !1725
  %46 = getelementptr inbounds float, float* %9, i64 %43, !dbg !1829
  %47 = load float, float* %46, align 4, !dbg !1829, !tbaa !1725
  %48 = fsub float %45, %47, !dbg !1830
  %49 = fmul float %48, %48, !dbg !1831
  %50 = fadd float %42, %49, !dbg !1832
  call void @llvm.dbg.value(metadata float %50, metadata !1817, metadata !DIExpression()), !dbg !1820
  %51 = add nuw nsw i64 %17, 4, !dbg !1833
  call void @llvm.dbg.value(metadata i64 %51, metadata !1816, metadata !DIExpression()), !dbg !1820
  %52 = add i64 %19, -4, !dbg !1824
  %53 = icmp eq i64 %52, 0, !dbg !1824
  br i1 %53, label %54, label %16, !dbg !1824, !llvm.loop !1834

54:                                               ; preds = %16, %5
  %55 = phi float [ undef, %5 ], [ %50, %16 ]
  %56 = phi i64 [ 0, %5 ], [ %51, %16 ]
  %57 = phi float [ 0.000000e+00, %5 ], [ %50, %16 ]
  %58 = icmp eq i64 %12, 0, !dbg !1824
  br i1 %58, label %73, label %59, !dbg !1824

59:                                               ; preds = %54, %59
  %60 = phi i64 [ %70, %59 ], [ %56, %54 ]
  %61 = phi float [ %69, %59 ], [ %57, %54 ]
  %62 = phi i64 [ %71, %59 ], [ %12, %54 ]
  call void @llvm.dbg.value(metadata float %61, metadata !1817, metadata !DIExpression()), !dbg !1820
  call void @llvm.dbg.value(metadata i64 %60, metadata !1816, metadata !DIExpression()), !dbg !1820
  %63 = getelementptr inbounds float, float* %7, i64 %60, !dbg !1828
  %64 = load float, float* %63, align 4, !dbg !1828, !tbaa !1725
  %65 = getelementptr inbounds float, float* %9, i64 %60, !dbg !1829
  %66 = load float, float* %65, align 4, !dbg !1829, !tbaa !1725
  %67 = fsub float %64, %66, !dbg !1830
  %68 = fmul float %67, %67, !dbg !1831
  %69 = fadd float %61, %68, !dbg !1832
  call void @llvm.dbg.value(metadata float %69, metadata !1817, metadata !DIExpression()), !dbg !1820
  %70 = add nuw nsw i64 %60, 1, !dbg !1833
  call void @llvm.dbg.value(metadata i64 %70, metadata !1816, metadata !DIExpression()), !dbg !1820
  %71 = add i64 %62, -1, !dbg !1824
  %72 = icmp eq i64 %71, 0, !dbg !1824
  br i1 %72, label %73, label %59, !dbg !1824, !llvm.loop !1836

73:                                               ; preds = %54, %59, %3
  %74 = phi float [ 0.000000e+00, %3 ], [ %55, %54 ], [ %69, %59 ], !dbg !1820
  call void @llvm.dbg.value(metadata float %74, metadata !1817, metadata !DIExpression()), !dbg !1820
  ret float %74, !dbg !1838
}

; Function Attrs: uwtable
define dso_local float @_Z7pspeedyP6PointsfPliP17pthread_barrier_t(%struct.Points* nocapture readonly %0, float %1, i64* nocapture %2, i32 %3, %union.pthread_barrier_t* %4) local_unnamed_addr #6 !dbg !235 {
  call void @llvm.dbg.value(metadata %struct.Points* %0, metadata !239, metadata !DIExpression()), !dbg !1839
  call void @llvm.dbg.value(metadata float %1, metadata !240, metadata !DIExpression()), !dbg !1839
  call void @llvm.dbg.value(metadata i64* %2, metadata !241, metadata !DIExpression()), !dbg !1839
  call void @llvm.dbg.value(metadata i32 %3, metadata !242, metadata !DIExpression()), !dbg !1839
  call void @llvm.dbg.value(metadata %union.pthread_barrier_t* %4, metadata !243, metadata !DIExpression()), !dbg !1839
  %6 = tail call i32 @pthread_barrier_wait(%union.pthread_barrier_t* %4) #15, !dbg !1840
  %7 = getelementptr inbounds %struct.Points, %struct.Points* %0, i64 0, i32 0, !dbg !1841
  %8 = load i64, i64* %7, align 8, !dbg !1841, !tbaa !1750
  %9 = load i32, i32* @_ZL5nproc, align 4, !dbg !1842, !tbaa !1801
  %10 = sext i32 %9 to i64, !dbg !1842
  %11 = sdiv i64 %8, %10, !dbg !1843
  call void @llvm.dbg.value(metadata i64 %11, metadata !244, metadata !DIExpression()), !dbg !1839
  %12 = sext i32 %3 to i64, !dbg !1844
  %13 = mul nsw i64 %11, %12, !dbg !1845
  call void @llvm.dbg.value(metadata i64 %13, metadata !245, metadata !DIExpression()), !dbg !1839
  %14 = add nsw i64 %13, %11, !dbg !1846
  call void @llvm.dbg.value(metadata i64 %14, metadata !246, metadata !DIExpression()), !dbg !1839
  %15 = add nsw i32 %9, -1, !dbg !1847
  %16 = icmp eq i32 %15, %3, !dbg !1849
  %17 = select i1 %16, i64 %8, i64 %14, !dbg !1850
  call void @llvm.dbg.value(metadata i64 %17, metadata !246, metadata !DIExpression()), !dbg !1839
  call void @llvm.dbg.value(metadata i64 %13, metadata !247, metadata !DIExpression(DW_OP_LLVM_convert, 64, DW_ATE_unsigned, DW_OP_LLVM_convert, 32, DW_ATE_unsigned, DW_OP_stack_value)), !dbg !1851
  %18 = shl i64 %13, 32, !dbg !1852
  %19 = ashr exact i64 %18, 32, !dbg !1852
  %20 = icmp sgt i64 %17, %19, !dbg !1853
  br i1 %20, label %21, label %37, !dbg !1854

21:                                               ; preds = %5
  call void @llvm.dbg.value(metadata i64 %13, metadata !247, metadata !DIExpression(DW_OP_LLVM_convert, 64, DW_ATE_unsigned, DW_OP_LLVM_convert, 32, DW_ATE_unsigned, DW_OP_stack_value)), !dbg !1851
  %22 = getelementptr inbounds %struct.Points, %struct.Points* %0, i64 0, i32 2, !dbg !1855
  %23 = load %struct.Point*, %struct.Point** %22, align 8, !dbg !1855, !tbaa !1764
  %24 = getelementptr inbounds %struct.Point, %struct.Point* %23, i64 0, i32 1, !dbg !1855
  %25 = load float*, float** %24, align 8, !dbg !1855, !tbaa.struct !1767
  %26 = getelementptr inbounds %struct.Points, %struct.Points* %0, i64 0, i32 1, !dbg !1855
  %27 = load i32, i32* %26, align 8, !dbg !1855, !tbaa !1856
  %28 = icmp sgt i32 %27, 0, !dbg !1857
  %29 = zext i32 %27 to i64, !dbg !1857
  %30 = shl i64 %13, 32, !dbg !1854
  %31 = ashr exact i64 %30, 32, !dbg !1854
  %32 = add nsw i64 %29, -1, !dbg !1854
  %33 = and i64 %29, 3, !dbg !1859
  %34 = icmp ult i64 %32, 3, !dbg !1859
  %35 = sub nsw i64 %29, %33, !dbg !1859
  %36 = icmp eq i64 %33, 0, !dbg !1859
  br label %44, !dbg !1854

37:                                               ; preds = %105, %5
  %38 = icmp eq i32 %3, 0, !dbg !1860
  br i1 %38, label %114, label %39, !dbg !1862

39:                                               ; preds = %37
  %40 = getelementptr inbounds %struct.Points, %struct.Points* %0, i64 0, i32 2, !dbg !1863
  %41 = getelementptr inbounds %struct.Points, %struct.Points* %0, i64 0, i32 1, !dbg !1863
  %42 = shl i64 %13, 32, !dbg !1864
  %43 = ashr exact i64 %42, 32, !dbg !1864
  br label %124, !dbg !1864

44:                                               ; preds = %21, %105
  %45 = phi i64 [ %31, %21 ], [ %112, %105 ]
  call void @llvm.dbg.value(metadata i64 %45, metadata !247, metadata !DIExpression()), !dbg !1851
  call void @llvm.dbg.value(metadata i64 undef, metadata !1813, metadata !DIExpression(DW_OP_LLVM_fragment, 0, 64)), !dbg !1865
  %46 = getelementptr inbounds %struct.Point, %struct.Point* %23, i64 %45, i32 1, !dbg !1866
  %47 = load float*, float** %46, align 8, !dbg !1866, !tbaa.struct !1767
  call void @llvm.dbg.value(metadata float* %47, metadata !1813, metadata !DIExpression(DW_OP_LLVM_fragment, 64, 64)), !dbg !1865
  call void @llvm.dbg.value(metadata i64 undef, metadata !1814, metadata !DIExpression(DW_OP_LLVM_fragment, 0, 64)), !dbg !1865
  call void @llvm.dbg.value(metadata float* %25, metadata !1814, metadata !DIExpression(DW_OP_LLVM_fragment, 64, 64)), !dbg !1865
  call void @llvm.dbg.value(metadata i32 %27, metadata !1815, metadata !DIExpression()), !dbg !1865
  call void @llvm.dbg.value(metadata float 0.000000e+00, metadata !1817, metadata !DIExpression()), !dbg !1865
  call void @llvm.dbg.value(metadata i32 0, metadata !1816, metadata !DIExpression()), !dbg !1865
  br i1 %28, label %48, label %105, !dbg !1867

48:                                               ; preds = %44
  br i1 %34, label %87, label %49, !dbg !1867

49:                                               ; preds = %48, %49
  %50 = phi i64 [ %84, %49 ], [ 0, %48 ]
  %51 = phi float [ %83, %49 ], [ 0.000000e+00, %48 ]
  %52 = phi i64 [ %85, %49 ], [ %35, %48 ]
  call void @llvm.dbg.value(metadata float %51, metadata !1817, metadata !DIExpression()), !dbg !1865
  call void @llvm.dbg.value(metadata i64 %50, metadata !1816, metadata !DIExpression()), !dbg !1865
  %53 = getelementptr inbounds float, float* %47, i64 %50, !dbg !1868
  %54 = load float, float* %53, align 4, !dbg !1868, !tbaa !1725
  %55 = getelementptr inbounds float, float* %25, i64 %50, !dbg !1869
  %56 = load float, float* %55, align 4, !dbg !1869, !tbaa !1725
  %57 = fsub float %54, %56, !dbg !1870
  %58 = fmul float %57, %57, !dbg !1871
  %59 = fadd float %51, %58, !dbg !1872
  call void @llvm.dbg.value(metadata float %59, metadata !1817, metadata !DIExpression()), !dbg !1865
  %60 = or i64 %50, 1, !dbg !1873
  call void @llvm.dbg.value(metadata i64 %60, metadata !1816, metadata !DIExpression()), !dbg !1865
  %61 = getelementptr inbounds float, float* %47, i64 %60, !dbg !1868
  %62 = load float, float* %61, align 4, !dbg !1868, !tbaa !1725
  %63 = getelementptr inbounds float, float* %25, i64 %60, !dbg !1869
  %64 = load float, float* %63, align 4, !dbg !1869, !tbaa !1725
  %65 = fsub float %62, %64, !dbg !1870
  %66 = fmul float %65, %65, !dbg !1871
  %67 = fadd float %59, %66, !dbg !1872
  call void @llvm.dbg.value(metadata float %67, metadata !1817, metadata !DIExpression()), !dbg !1865
  %68 = or i64 %50, 2, !dbg !1873
  call void @llvm.dbg.value(metadata i64 %68, metadata !1816, metadata !DIExpression()), !dbg !1865
  %69 = getelementptr inbounds float, float* %47, i64 %68, !dbg !1868
  %70 = load float, float* %69, align 4, !dbg !1868, !tbaa !1725
  %71 = getelementptr inbounds float, float* %25, i64 %68, !dbg !1869
  %72 = load float, float* %71, align 4, !dbg !1869, !tbaa !1725
  %73 = fsub float %70, %72, !dbg !1870
  %74 = fmul float %73, %73, !dbg !1871
  %75 = fadd float %67, %74, !dbg !1872
  call void @llvm.dbg.value(metadata float %75, metadata !1817, metadata !DIExpression()), !dbg !1865
  %76 = or i64 %50, 3, !dbg !1873
  call void @llvm.dbg.value(metadata i64 %76, metadata !1816, metadata !DIExpression()), !dbg !1865
  %77 = getelementptr inbounds float, float* %47, i64 %76, !dbg !1868
  %78 = load float, float* %77, align 4, !dbg !1868, !tbaa !1725
  %79 = getelementptr inbounds float, float* %25, i64 %76, !dbg !1869
  %80 = load float, float* %79, align 4, !dbg !1869, !tbaa !1725
  %81 = fsub float %78, %80, !dbg !1870
  %82 = fmul float %81, %81, !dbg !1871
  %83 = fadd float %75, %82, !dbg !1872
  call void @llvm.dbg.value(metadata float %83, metadata !1817, metadata !DIExpression()), !dbg !1865
  %84 = add nuw nsw i64 %50, 4, !dbg !1873
  call void @llvm.dbg.value(metadata i64 %84, metadata !1816, metadata !DIExpression()), !dbg !1865
  %85 = add i64 %52, -4, !dbg !1867
  %86 = icmp eq i64 %85, 0, !dbg !1867
  br i1 %86, label %87, label %49, !dbg !1867, !llvm.loop !1874

87:                                               ; preds = %49, %48
  %88 = phi float [ undef, %48 ], [ %83, %49 ]
  %89 = phi i64 [ 0, %48 ], [ %84, %49 ]
  %90 = phi float [ 0.000000e+00, %48 ], [ %83, %49 ]
  br i1 %36, label %105, label %91, !dbg !1867

91:                                               ; preds = %87, %91
  %92 = phi i64 [ %102, %91 ], [ %89, %87 ]
  %93 = phi float [ %101, %91 ], [ %90, %87 ]
  %94 = phi i64 [ %103, %91 ], [ %33, %87 ]
  call void @llvm.dbg.value(metadata float %93, metadata !1817, metadata !DIExpression()), !dbg !1865
  call void @llvm.dbg.value(metadata i64 %92, metadata !1816, metadata !DIExpression()), !dbg !1865
  %95 = getelementptr inbounds float, float* %47, i64 %92, !dbg !1868
  %96 = load float, float* %95, align 4, !dbg !1868, !tbaa !1725
  %97 = getelementptr inbounds float, float* %25, i64 %92, !dbg !1869
  %98 = load float, float* %97, align 4, !dbg !1869, !tbaa !1725
  %99 = fsub float %96, %98, !dbg !1870
  %100 = fmul float %99, %99, !dbg !1871
  %101 = fadd float %93, %100, !dbg !1872
  call void @llvm.dbg.value(metadata float %101, metadata !1817, metadata !DIExpression()), !dbg !1865
  %102 = add nuw nsw i64 %92, 1, !dbg !1873
  call void @llvm.dbg.value(metadata i64 %102, metadata !1816, metadata !DIExpression()), !dbg !1865
  %103 = add i64 %94, -1, !dbg !1867
  %104 = icmp eq i64 %103, 0, !dbg !1867
  br i1 %104, label %105, label %91, !dbg !1867, !llvm.loop !1876

105:                                              ; preds = %87, %91, %44
  %106 = phi float [ 0.000000e+00, %44 ], [ %88, %87 ], [ %101, %91 ], !dbg !1865
  call void @llvm.dbg.value(metadata float %106, metadata !1817, metadata !DIExpression()), !dbg !1865
  call void @llvm.dbg.value(metadata float %106, metadata !249, metadata !DIExpression()), !dbg !1855
  %107 = getelementptr inbounds %struct.Point, %struct.Point* %23, i64 %45, i32 0, !dbg !1877
  %108 = load float, float* %107, align 8, !dbg !1877, !tbaa !1878
  %109 = fmul float %106, %108, !dbg !1879
  %110 = getelementptr inbounds %struct.Point, %struct.Point* %23, i64 %45, i32 3, !dbg !1880
  store float %109, float* %110, align 8, !dbg !1881, !tbaa !1882
  %111 = getelementptr inbounds %struct.Point, %struct.Point* %23, i64 %45, i32 2, !dbg !1883
  store i64 0, i64* %111, align 8, !dbg !1884, !tbaa !1885
  %112 = add i64 %45, 1, !dbg !1886
  call void @llvm.dbg.value(metadata i64 %112, metadata !247, metadata !DIExpression()), !dbg !1851
  %113 = icmp sgt i64 %17, %112, !dbg !1853
  br i1 %113, label %44, label %37, !dbg !1854, !llvm.loop !1887

114:                                              ; preds = %37
  store i64 1, i64* %2, align 8, !dbg !1889, !tbaa !1769
  %115 = shl nsw i64 %10, 3, !dbg !1891
  %116 = tail call noalias i8* @malloc(i64 %115) #15, !dbg !1892
  store i8* %116, i8** bitcast (double** @_ZZ7pspeedyP6PointsfPliP17pthread_barrier_tE5costs to i8**), align 8, !dbg !1893, !tbaa !1768
  store i32 1, i32* @_ZZ7pspeedyP6PointsfPliP17pthread_barrier_tE1i, align 4, !dbg !1894, !tbaa !1801
  %117 = load i64, i64* %7, align 8, !dbg !1895, !tbaa !1750
  %118 = icmp sgt i64 %117, 1, !dbg !1896
  br i1 %118, label %119, label %341, !dbg !1897

119:                                              ; preds = %114
  %120 = getelementptr inbounds %struct.Points, %struct.Points* %0, i64 0, i32 2, !dbg !1898
  %121 = getelementptr inbounds %struct.Points, %struct.Points* %0, i64 0, i32 1, !dbg !1899
  %122 = shl i64 %13, 32, !dbg !1897
  %123 = ashr exact i64 %122, 32, !dbg !1897
  br label %226, !dbg !1897

124:                                              ; preds = %39, %149
  %125 = tail call i32 @pthread_mutex_lock(%union.pthread_mutex_t* nonnull @_ZZ7pspeedyP6PointsfPliP17pthread_barrier_tE5mutex) #15, !dbg !1900
  %126 = load i1, i1* @_ZZ7pspeedyP6PointsfPliP17pthread_barrier_tE4open, align 1, !dbg !1901
  br i1 %126, label %130, label %127, !dbg !1902

127:                                              ; preds = %124, %127
  %128 = tail call i32 @pthread_cond_wait(%union.pthread_cond_t* nonnull @_ZZ7pspeedyP6PointsfPliP17pthread_barrier_tE4cond, %union.pthread_mutex_t* nonnull @_ZZ7pspeedyP6PointsfPliP17pthread_barrier_tE5mutex), !dbg !1903
  %129 = load i1, i1* @_ZZ7pspeedyP6PointsfPliP17pthread_barrier_tE4open, align 1, !dbg !1901
  br i1 %129, label %130, label %127, !dbg !1902, !llvm.loop !1904

130:                                              ; preds = %127, %124
  %131 = tail call i32 @pthread_mutex_unlock(%union.pthread_mutex_t* nonnull @_ZZ7pspeedyP6PointsfPliP17pthread_barrier_tE5mutex) #15, !dbg !1906
  %132 = load i32, i32* @_ZZ7pspeedyP6PointsfPliP17pthread_barrier_tE1i, align 4, !dbg !1907, !tbaa !1801
  %133 = sext i32 %132 to i64, !dbg !1907
  %134 = load i64, i64* %7, align 8, !dbg !1909, !tbaa !1750
  %135 = icmp sgt i64 %134, %133, !dbg !1910
  br i1 %135, label %136, label %345, !dbg !1911

136:                                              ; preds = %130
  call void @llvm.dbg.value(metadata i64 %13, metadata !252, metadata !DIExpression(DW_OP_LLVM_convert, 64, DW_ATE_unsigned, DW_OP_LLVM_convert, 32, DW_ATE_unsigned, DW_OP_stack_value)), !dbg !1912
  br i1 %20, label %137, label %149, !dbg !1913

137:                                              ; preds = %136
  %138 = load %struct.Point*, %struct.Point** %40, align 8, !dbg !1863, !tbaa !1764
  %139 = getelementptr inbounds %struct.Point, %struct.Point* %138, i64 %133, i32 1, !dbg !1863
  %140 = load float*, float** %139, align 8, !dbg !1863, !tbaa.struct !1767
  %141 = load i32, i32* %41, align 8, !dbg !1863, !tbaa !1856
  %142 = icmp sgt i32 %141, 0, !dbg !1914
  %143 = zext i32 %141 to i64, !dbg !1914
  %144 = add nsw i64 %143, -1, !dbg !1913
  %145 = and i64 %143, 3, !dbg !1916
  %146 = icmp ult i64 %144, 3, !dbg !1916
  %147 = sub nsw i64 %143, %145, !dbg !1916
  %148 = icmp eq i64 %145, 0, !dbg !1916
  br label %152, !dbg !1913

149:                                              ; preds = %223, %136
  %150 = tail call i32 @pthread_barrier_wait(%union.pthread_barrier_t* %4) #15, !dbg !1917
  %151 = tail call i32 @pthread_barrier_wait(%union.pthread_barrier_t* %4) #15, !dbg !1918
  br label %124, !dbg !1864, !llvm.loop !1919

152:                                              ; preds = %137, %223
  %153 = phi i64 [ %43, %137 ], [ %224, %223 ]
  call void @llvm.dbg.value(metadata i64 %153, metadata !252, metadata !DIExpression()), !dbg !1912
  call void @llvm.dbg.value(metadata i64 undef, metadata !1813, metadata !DIExpression(DW_OP_LLVM_fragment, 0, 64)), !dbg !1921
  call void @llvm.dbg.value(metadata float* %140, metadata !1813, metadata !DIExpression(DW_OP_LLVM_fragment, 64, 64)), !dbg !1921
  call void @llvm.dbg.value(metadata i64 undef, metadata !1814, metadata !DIExpression(DW_OP_LLVM_fragment, 0, 64)), !dbg !1921
  %154 = getelementptr inbounds %struct.Point, %struct.Point* %138, i64 %153, i32 1, !dbg !1922
  %155 = load float*, float** %154, align 8, !dbg !1922, !tbaa.struct !1767
  call void @llvm.dbg.value(metadata float* %155, metadata !1814, metadata !DIExpression(DW_OP_LLVM_fragment, 64, 64)), !dbg !1921
  call void @llvm.dbg.value(metadata i32 %141, metadata !1815, metadata !DIExpression()), !dbg !1921
  call void @llvm.dbg.value(metadata float 0.000000e+00, metadata !1817, metadata !DIExpression()), !dbg !1921
  call void @llvm.dbg.value(metadata i32 0, metadata !1816, metadata !DIExpression()), !dbg !1921
  br i1 %142, label %156, label %213, !dbg !1923

156:                                              ; preds = %152
  br i1 %146, label %195, label %157, !dbg !1923

157:                                              ; preds = %156, %157
  %158 = phi i64 [ %192, %157 ], [ 0, %156 ]
  %159 = phi float [ %191, %157 ], [ 0.000000e+00, %156 ]
  %160 = phi i64 [ %193, %157 ], [ %147, %156 ]
  call void @llvm.dbg.value(metadata float %159, metadata !1817, metadata !DIExpression()), !dbg !1921
  call void @llvm.dbg.value(metadata i64 %158, metadata !1816, metadata !DIExpression()), !dbg !1921
  %161 = getelementptr inbounds float, float* %140, i64 %158, !dbg !1924
  %162 = load float, float* %161, align 4, !dbg !1924, !tbaa !1725
  %163 = getelementptr inbounds float, float* %155, i64 %158, !dbg !1925
  %164 = load float, float* %163, align 4, !dbg !1925, !tbaa !1725
  %165 = fsub float %162, %164, !dbg !1926
  %166 = fmul float %165, %165, !dbg !1927
  %167 = fadd float %159, %166, !dbg !1928
  call void @llvm.dbg.value(metadata float %167, metadata !1817, metadata !DIExpression()), !dbg !1921
  %168 = or i64 %158, 1, !dbg !1929
  call void @llvm.dbg.value(metadata i64 %168, metadata !1816, metadata !DIExpression()), !dbg !1921
  %169 = getelementptr inbounds float, float* %140, i64 %168, !dbg !1924
  %170 = load float, float* %169, align 4, !dbg !1924, !tbaa !1725
  %171 = getelementptr inbounds float, float* %155, i64 %168, !dbg !1925
  %172 = load float, float* %171, align 4, !dbg !1925, !tbaa !1725
  %173 = fsub float %170, %172, !dbg !1926
  %174 = fmul float %173, %173, !dbg !1927
  %175 = fadd float %167, %174, !dbg !1928
  call void @llvm.dbg.value(metadata float %175, metadata !1817, metadata !DIExpression()), !dbg !1921
  %176 = or i64 %158, 2, !dbg !1929
  call void @llvm.dbg.value(metadata i64 %176, metadata !1816, metadata !DIExpression()), !dbg !1921
  %177 = getelementptr inbounds float, float* %140, i64 %176, !dbg !1924
  %178 = load float, float* %177, align 4, !dbg !1924, !tbaa !1725
  %179 = getelementptr inbounds float, float* %155, i64 %176, !dbg !1925
  %180 = load float, float* %179, align 4, !dbg !1925, !tbaa !1725
  %181 = fsub float %178, %180, !dbg !1926
  %182 = fmul float %181, %181, !dbg !1927
  %183 = fadd float %175, %182, !dbg !1928
  call void @llvm.dbg.value(metadata float %183, metadata !1817, metadata !DIExpression()), !dbg !1921
  %184 = or i64 %158, 3, !dbg !1929
  call void @llvm.dbg.value(metadata i64 %184, metadata !1816, metadata !DIExpression()), !dbg !1921
  %185 = getelementptr inbounds float, float* %140, i64 %184, !dbg !1924
  %186 = load float, float* %185, align 4, !dbg !1924, !tbaa !1725
  %187 = getelementptr inbounds float, float* %155, i64 %184, !dbg !1925
  %188 = load float, float* %187, align 4, !dbg !1925, !tbaa !1725
  %189 = fsub float %186, %188, !dbg !1926
  %190 = fmul float %189, %189, !dbg !1927
  %191 = fadd float %183, %190, !dbg !1928
  call void @llvm.dbg.value(metadata float %191, metadata !1817, metadata !DIExpression()), !dbg !1921
  %192 = add nuw nsw i64 %158, 4, !dbg !1929
  call void @llvm.dbg.value(metadata i64 %192, metadata !1816, metadata !DIExpression()), !dbg !1921
  %193 = add i64 %160, -4, !dbg !1923
  %194 = icmp eq i64 %193, 0, !dbg !1923
  br i1 %194, label %195, label %157, !dbg !1923, !llvm.loop !1930

195:                                              ; preds = %157, %156
  %196 = phi float [ undef, %156 ], [ %191, %157 ]
  %197 = phi i64 [ 0, %156 ], [ %192, %157 ]
  %198 = phi float [ 0.000000e+00, %156 ], [ %191, %157 ]
  br i1 %148, label %213, label %199, !dbg !1923

199:                                              ; preds = %195, %199
  %200 = phi i64 [ %210, %199 ], [ %197, %195 ]
  %201 = phi float [ %209, %199 ], [ %198, %195 ]
  %202 = phi i64 [ %211, %199 ], [ %145, %195 ]
  call void @llvm.dbg.value(metadata float %201, metadata !1817, metadata !DIExpression()), !dbg !1921
  call void @llvm.dbg.value(metadata i64 %200, metadata !1816, metadata !DIExpression()), !dbg !1921
  %203 = getelementptr inbounds float, float* %140, i64 %200, !dbg !1924
  %204 = load float, float* %203, align 4, !dbg !1924, !tbaa !1725
  %205 = getelementptr inbounds float, float* %155, i64 %200, !dbg !1925
  %206 = load float, float* %205, align 4, !dbg !1925, !tbaa !1725
  %207 = fsub float %204, %206, !dbg !1926
  %208 = fmul float %207, %207, !dbg !1927
  %209 = fadd float %201, %208, !dbg !1928
  call void @llvm.dbg.value(metadata float %209, metadata !1817, metadata !DIExpression()), !dbg !1921
  %210 = add nuw nsw i64 %200, 1, !dbg !1929
  call void @llvm.dbg.value(metadata i64 %210, metadata !1816, metadata !DIExpression()), !dbg !1921
  %211 = add i64 %202, -1, !dbg !1923
  %212 = icmp eq i64 %211, 0, !dbg !1923
  br i1 %212, label %213, label %199, !dbg !1923, !llvm.loop !1932

213:                                              ; preds = %195, %199, %152
  %214 = phi float [ 0.000000e+00, %152 ], [ %196, %195 ], [ %209, %199 ], !dbg !1921
  call void @llvm.dbg.value(metadata float %214, metadata !1817, metadata !DIExpression()), !dbg !1921
  call void @llvm.dbg.value(metadata float %214, metadata !257, metadata !DIExpression()), !dbg !1863
  %215 = getelementptr inbounds %struct.Point, %struct.Point* %138, i64 %153, i32 0, !dbg !1933
  %216 = load float, float* %215, align 8, !dbg !1933, !tbaa !1878
  %217 = fmul float %214, %216, !dbg !1935
  %218 = getelementptr inbounds %struct.Point, %struct.Point* %138, i64 %153, i32 3, !dbg !1936
  %219 = load float, float* %218, align 8, !dbg !1936, !tbaa !1882
  %220 = fcmp olt float %217, %219, !dbg !1937
  br i1 %220, label %221, label %223, !dbg !1938

221:                                              ; preds = %213
  store float %217, float* %218, align 8, !dbg !1939, !tbaa !1882
  %222 = getelementptr inbounds %struct.Point, %struct.Point* %138, i64 %153, i32 2, !dbg !1941
  store i64 %133, i64* %222, align 8, !dbg !1942, !tbaa !1885
  br label %223, !dbg !1943

223:                                              ; preds = %221, %213
  %224 = add i64 %153, 1, !dbg !1944
  call void @llvm.dbg.value(metadata i64 %224, metadata !252, metadata !DIExpression()), !dbg !1912
  %225 = icmp sgt i64 %17, %224, !dbg !1945
  br i1 %225, label %152, label %149, !dbg !1913, !llvm.loop !1946

226:                                              ; preds = %119, %335
  %227 = tail call i64 @lrand48() #15, !dbg !1948
  %228 = sitofp i64 %227 to float, !dbg !1948
  %229 = fmul float %228, 0x3E00000000000000, !dbg !1949
  %230 = load %struct.Point*, %struct.Point** %120, align 8, !dbg !1950, !tbaa !1764
  %231 = load i32, i32* @_ZZ7pspeedyP6PointsfPliP17pthread_barrier_tE1i, align 4, !dbg !1951, !tbaa !1801
  %232 = sext i32 %231 to i64, !dbg !1952
  %233 = getelementptr inbounds %struct.Point, %struct.Point* %230, i64 %232, i32 3, !dbg !1953
  %234 = load float, float* %233, align 8, !dbg !1953, !tbaa !1882
  %235 = fdiv float %234, %1, !dbg !1954
  %236 = fcmp olt float %229, %235, !dbg !1955
  call void @llvm.dbg.value(metadata i1 %236, metadata !260, metadata !DIExpression()), !dbg !1898
  br i1 %236, label %237, label %335, !dbg !1956

237:                                              ; preds = %226
  %238 = load i64, i64* %2, align 8, !dbg !1957, !tbaa !1769
  %239 = add nsw i64 %238, 1, !dbg !1957
  store i64 %239, i64* %2, align 8, !dbg !1957, !tbaa !1769
  %240 = tail call i32 @pthread_mutex_lock(%union.pthread_mutex_t* nonnull @_ZZ7pspeedyP6PointsfPliP17pthread_barrier_tE5mutex) #15, !dbg !1958
  store i1 true, i1* @_ZZ7pspeedyP6PointsfPliP17pthread_barrier_tE4open, align 1, !dbg !1959
  %241 = tail call i32 @pthread_mutex_unlock(%union.pthread_mutex_t* nonnull @_ZZ7pspeedyP6PointsfPliP17pthread_barrier_tE5mutex) #15, !dbg !1960
  %242 = tail call i32 @pthread_cond_broadcast(%union.pthread_cond_t* nonnull @_ZZ7pspeedyP6PointsfPliP17pthread_barrier_tE4cond) #15, !dbg !1961
  call void @llvm.dbg.value(metadata i64 %13, metadata !265, metadata !DIExpression(DW_OP_LLVM_convert, 64, DW_ATE_unsigned, DW_OP_LLVM_convert, 32, DW_ATE_unsigned, DW_OP_stack_value)), !dbg !1962
  br i1 %20, label %243, label %257, !dbg !1963

243:                                              ; preds = %237
  %244 = load %struct.Point*, %struct.Point** %120, align 8, !dbg !1899, !tbaa !1764
  %245 = load i32, i32* @_ZZ7pspeedyP6PointsfPliP17pthread_barrier_tE1i, align 4, !dbg !1899, !tbaa !1801
  %246 = sext i32 %245 to i64, !dbg !1899
  %247 = getelementptr inbounds %struct.Point, %struct.Point* %244, i64 %246, i32 1, !dbg !1899
  %248 = load float*, float** %247, align 8, !dbg !1899, !tbaa.struct !1767
  %249 = load i32, i32* %121, align 8, !dbg !1899, !tbaa !1856
  %250 = icmp sgt i32 %249, 0, !dbg !1964
  %251 = zext i32 %249 to i64, !dbg !1964
  %252 = add nsw i64 %251, -1, !dbg !1963
  %253 = and i64 %251, 3, !dbg !1966
  %254 = icmp ult i64 %252, 3, !dbg !1966
  %255 = sub nsw i64 %251, %253, !dbg !1966
  %256 = icmp eq i64 %253, 0, !dbg !1966
  br label %261, !dbg !1963

257:                                              ; preds = %332, %237
  %258 = tail call i32 @pthread_barrier_wait(%union.pthread_barrier_t* %4) #15, !dbg !1967
  store i1 false, i1* @_ZZ7pspeedyP6PointsfPliP17pthread_barrier_tE4open, align 1, !dbg !1968
  %259 = tail call i32 @pthread_barrier_wait(%union.pthread_barrier_t* %4) #15, !dbg !1969
  %260 = load i32, i32* @_ZZ7pspeedyP6PointsfPliP17pthread_barrier_tE1i, align 4, !dbg !1970, !tbaa !1801
  br label %335, !dbg !1971

261:                                              ; preds = %243, %332
  %262 = phi i64 [ %123, %243 ], [ %333, %332 ]
  call void @llvm.dbg.value(metadata i64 %262, metadata !265, metadata !DIExpression()), !dbg !1962
  call void @llvm.dbg.value(metadata i64 undef, metadata !1813, metadata !DIExpression(DW_OP_LLVM_fragment, 0, 64)), !dbg !1972
  call void @llvm.dbg.value(metadata float* %248, metadata !1813, metadata !DIExpression(DW_OP_LLVM_fragment, 64, 64)), !dbg !1972
  call void @llvm.dbg.value(metadata i64 undef, metadata !1814, metadata !DIExpression(DW_OP_LLVM_fragment, 0, 64)), !dbg !1972
  %263 = getelementptr inbounds %struct.Point, %struct.Point* %244, i64 %262, i32 1, !dbg !1973
  %264 = load float*, float** %263, align 8, !dbg !1973, !tbaa.struct !1767
  call void @llvm.dbg.value(metadata float* %264, metadata !1814, metadata !DIExpression(DW_OP_LLVM_fragment, 64, 64)), !dbg !1972
  call void @llvm.dbg.value(metadata i32 %249, metadata !1815, metadata !DIExpression()), !dbg !1972
  call void @llvm.dbg.value(metadata float 0.000000e+00, metadata !1817, metadata !DIExpression()), !dbg !1972
  call void @llvm.dbg.value(metadata i32 0, metadata !1816, metadata !DIExpression()), !dbg !1972
  br i1 %250, label %265, label %322, !dbg !1974

265:                                              ; preds = %261
  br i1 %254, label %304, label %266, !dbg !1974

266:                                              ; preds = %265, %266
  %267 = phi i64 [ %301, %266 ], [ 0, %265 ]
  %268 = phi float [ %300, %266 ], [ 0.000000e+00, %265 ]
  %269 = phi i64 [ %302, %266 ], [ %255, %265 ]
  call void @llvm.dbg.value(metadata float %268, metadata !1817, metadata !DIExpression()), !dbg !1972
  call void @llvm.dbg.value(metadata i64 %267, metadata !1816, metadata !DIExpression()), !dbg !1972
  %270 = getelementptr inbounds float, float* %248, i64 %267, !dbg !1975
  %271 = load float, float* %270, align 4, !dbg !1975, !tbaa !1725
  %272 = getelementptr inbounds float, float* %264, i64 %267, !dbg !1976
  %273 = load float, float* %272, align 4, !dbg !1976, !tbaa !1725
  %274 = fsub float %271, %273, !dbg !1977
  %275 = fmul float %274, %274, !dbg !1978
  %276 = fadd float %268, %275, !dbg !1979
  call void @llvm.dbg.value(metadata float %276, metadata !1817, metadata !DIExpression()), !dbg !1972
  %277 = or i64 %267, 1, !dbg !1980
  call void @llvm.dbg.value(metadata i64 %277, metadata !1816, metadata !DIExpression()), !dbg !1972
  %278 = getelementptr inbounds float, float* %248, i64 %277, !dbg !1975
  %279 = load float, float* %278, align 4, !dbg !1975, !tbaa !1725
  %280 = getelementptr inbounds float, float* %264, i64 %277, !dbg !1976
  %281 = load float, float* %280, align 4, !dbg !1976, !tbaa !1725
  %282 = fsub float %279, %281, !dbg !1977
  %283 = fmul float %282, %282, !dbg !1978
  %284 = fadd float %276, %283, !dbg !1979
  call void @llvm.dbg.value(metadata float %284, metadata !1817, metadata !DIExpression()), !dbg !1972
  %285 = or i64 %267, 2, !dbg !1980
  call void @llvm.dbg.value(metadata i64 %285, metadata !1816, metadata !DIExpression()), !dbg !1972
  %286 = getelementptr inbounds float, float* %248, i64 %285, !dbg !1975
  %287 = load float, float* %286, align 4, !dbg !1975, !tbaa !1725
  %288 = getelementptr inbounds float, float* %264, i64 %285, !dbg !1976
  %289 = load float, float* %288, align 4, !dbg !1976, !tbaa !1725
  %290 = fsub float %287, %289, !dbg !1977
  %291 = fmul float %290, %290, !dbg !1978
  %292 = fadd float %284, %291, !dbg !1979
  call void @llvm.dbg.value(metadata float %292, metadata !1817, metadata !DIExpression()), !dbg !1972
  %293 = or i64 %267, 3, !dbg !1980
  call void @llvm.dbg.value(metadata i64 %293, metadata !1816, metadata !DIExpression()), !dbg !1972
  %294 = getelementptr inbounds float, float* %248, i64 %293, !dbg !1975
  %295 = load float, float* %294, align 4, !dbg !1975, !tbaa !1725
  %296 = getelementptr inbounds float, float* %264, i64 %293, !dbg !1976
  %297 = load float, float* %296, align 4, !dbg !1976, !tbaa !1725
  %298 = fsub float %295, %297, !dbg !1977
  %299 = fmul float %298, %298, !dbg !1978
  %300 = fadd float %292, %299, !dbg !1979
  call void @llvm.dbg.value(metadata float %300, metadata !1817, metadata !DIExpression()), !dbg !1972
  %301 = add nuw nsw i64 %267, 4, !dbg !1980
  call void @llvm.dbg.value(metadata i64 %301, metadata !1816, metadata !DIExpression()), !dbg !1972
  %302 = add i64 %269, -4, !dbg !1974
  %303 = icmp eq i64 %302, 0, !dbg !1974
  br i1 %303, label %304, label %266, !dbg !1974, !llvm.loop !1981

304:                                              ; preds = %266, %265
  %305 = phi float [ undef, %265 ], [ %300, %266 ]
  %306 = phi i64 [ 0, %265 ], [ %301, %266 ]
  %307 = phi float [ 0.000000e+00, %265 ], [ %300, %266 ]
  br i1 %256, label %322, label %308, !dbg !1974

308:                                              ; preds = %304, %308
  %309 = phi i64 [ %319, %308 ], [ %306, %304 ]
  %310 = phi float [ %318, %308 ], [ %307, %304 ]
  %311 = phi i64 [ %320, %308 ], [ %253, %304 ]
  call void @llvm.dbg.value(metadata float %310, metadata !1817, metadata !DIExpression()), !dbg !1972
  call void @llvm.dbg.value(metadata i64 %309, metadata !1816, metadata !DIExpression()), !dbg !1972
  %312 = getelementptr inbounds float, float* %248, i64 %309, !dbg !1975
  %313 = load float, float* %312, align 4, !dbg !1975, !tbaa !1725
  %314 = getelementptr inbounds float, float* %264, i64 %309, !dbg !1976
  %315 = load float, float* %314, align 4, !dbg !1976, !tbaa !1725
  %316 = fsub float %313, %315, !dbg !1977
  %317 = fmul float %316, %316, !dbg !1978
  %318 = fadd float %310, %317, !dbg !1979
  call void @llvm.dbg.value(metadata float %318, metadata !1817, metadata !DIExpression()), !dbg !1972
  %319 = add nuw nsw i64 %309, 1, !dbg !1980
  call void @llvm.dbg.value(metadata i64 %319, metadata !1816, metadata !DIExpression()), !dbg !1972
  %320 = add i64 %311, -1, !dbg !1974
  %321 = icmp eq i64 %320, 0, !dbg !1974
  br i1 %321, label %322, label %308, !dbg !1974, !llvm.loop !1983

322:                                              ; preds = %304, %308, %261
  %323 = phi float [ 0.000000e+00, %261 ], [ %305, %304 ], [ %318, %308 ], !dbg !1972
  call void @llvm.dbg.value(metadata float %323, metadata !1817, metadata !DIExpression()), !dbg !1972
  call void @llvm.dbg.value(metadata float %323, metadata !269, metadata !DIExpression()), !dbg !1899
  %324 = getelementptr inbounds %struct.Point, %struct.Point* %244, i64 %262, i32 0, !dbg !1984
  %325 = load float, float* %324, align 8, !dbg !1984, !tbaa !1878
  %326 = fmul float %323, %325, !dbg !1986
  %327 = getelementptr inbounds %struct.Point, %struct.Point* %244, i64 %262, i32 3, !dbg !1987
  %328 = load float, float* %327, align 8, !dbg !1987, !tbaa !1882
  %329 = fcmp olt float %326, %328, !dbg !1988
  br i1 %329, label %330, label %332, !dbg !1989

330:                                              ; preds = %322
  store float %326, float* %327, align 8, !dbg !1990, !tbaa !1882
  %331 = getelementptr inbounds %struct.Point, %struct.Point* %244, i64 %262, i32 2, !dbg !1992
  store i64 %246, i64* %331, align 8, !dbg !1993, !tbaa !1885
  br label %332, !dbg !1994

332:                                              ; preds = %330, %322
  %333 = add i64 %262, 1, !dbg !1995
  call void @llvm.dbg.value(metadata i64 %333, metadata !265, metadata !DIExpression()), !dbg !1962
  %334 = icmp sgt i64 %17, %333, !dbg !1996
  br i1 %334, label %261, label %257, !dbg !1963, !llvm.loop !1997

335:                                              ; preds = %257, %226
  %336 = phi i32 [ %260, %257 ], [ %231, %226 ], !dbg !1970
  %337 = add nsw i32 %336, 1, !dbg !1970
  store i32 %337, i32* @_ZZ7pspeedyP6PointsfPliP17pthread_barrier_tE1i, align 4, !dbg !1894, !tbaa !1801
  %338 = sext i32 %337 to i64, !dbg !1999
  %339 = load i64, i64* %7, align 8, !dbg !1895, !tbaa !1750
  %340 = icmp sgt i64 %339, %338, !dbg !1896
  br i1 %340, label %226, label %341, !dbg !1897, !llvm.loop !2000

341:                                              ; preds = %335, %114
  %342 = tail call i32 @pthread_mutex_lock(%union.pthread_mutex_t* nonnull @_ZZ7pspeedyP6PointsfPliP17pthread_barrier_tE5mutex) #15, !dbg !2002
  store i1 true, i1* @_ZZ7pspeedyP6PointsfPliP17pthread_barrier_tE4open, align 1, !dbg !2003
  %343 = tail call i32 @pthread_mutex_unlock(%union.pthread_mutex_t* nonnull @_ZZ7pspeedyP6PointsfPliP17pthread_barrier_tE5mutex) #15, !dbg !2004
  %344 = tail call i32 @pthread_cond_broadcast(%union.pthread_cond_t* nonnull @_ZZ7pspeedyP6PointsfPliP17pthread_barrier_tE4cond) #15, !dbg !2005
  br label %345

345:                                              ; preds = %130, %341
  %346 = tail call i32 @pthread_barrier_wait(%union.pthread_barrier_t* %4) #15, !dbg !2006
  store i1 false, i1* @_ZZ7pspeedyP6PointsfPliP17pthread_barrier_tE4open, align 1, !dbg !2007
  call void @llvm.dbg.value(metadata double 0.000000e+00, metadata !272, metadata !DIExpression()), !dbg !1839
  call void @llvm.dbg.value(metadata i64 %13, metadata !273, metadata !DIExpression(DW_OP_LLVM_convert, 64, DW_ATE_unsigned, DW_OP_LLVM_convert, 32, DW_ATE_unsigned, DW_OP_stack_value)), !dbg !2008
  br i1 %20, label %347, label %376, !dbg !2009

347:                                              ; preds = %345
  %348 = getelementptr inbounds %struct.Points, %struct.Points* %0, i64 0, i32 2, !dbg !2010
  %349 = load %struct.Point*, %struct.Point** %348, align 8, !dbg !2010, !tbaa !1764
  %350 = shl i64 %13, 32, !dbg !2009
  %351 = ashr exact i64 %350, 32, !dbg !2009
  %352 = trunc i64 %11 to i32, !dbg !2009
  %353 = mul i32 %352, %3, !dbg !2009
  %354 = sext i32 %353 to i64, !dbg !2009
  %355 = sub i64 %17, %354, !dbg !2009
  %356 = xor i64 %354, -1, !dbg !2009
  %357 = add i64 %17, %356, !dbg !2009
  %358 = and i64 %355, 3, !dbg !2009
  %359 = icmp eq i64 %358, 0, !dbg !2009
  br i1 %359, label %371, label %360, !dbg !2009

360:                                              ; preds = %347, %360
  %361 = phi i64 [ %368, %360 ], [ %351, %347 ]
  %362 = phi double [ %367, %360 ], [ 0.000000e+00, %347 ]
  %363 = phi i64 [ %369, %360 ], [ %358, %347 ]
  call void @llvm.dbg.value(metadata i64 %361, metadata !273, metadata !DIExpression()), !dbg !2008
  call void @llvm.dbg.value(metadata double %362, metadata !272, metadata !DIExpression()), !dbg !1839
  %364 = getelementptr inbounds %struct.Point, %struct.Point* %349, i64 %361, i32 3, !dbg !2013
  %365 = load float, float* %364, align 8, !dbg !2013, !tbaa !1882
  %366 = fpext float %365 to double, !dbg !2014
  %367 = fadd double %362, %366, !dbg !2015
  call void @llvm.dbg.value(metadata double %367, metadata !272, metadata !DIExpression()), !dbg !1839
  %368 = add nsw i64 %361, 1, !dbg !2016
  call void @llvm.dbg.value(metadata i64 %368, metadata !273, metadata !DIExpression()), !dbg !2008
  %369 = add i64 %363, -1, !dbg !2009
  %370 = icmp eq i64 %369, 0, !dbg !2009
  br i1 %370, label %371, label %360, !dbg !2009, !llvm.loop !2017

371:                                              ; preds = %360, %347
  %372 = phi i64 [ %351, %347 ], [ %368, %360 ]
  %373 = phi double [ 0.000000e+00, %347 ], [ %367, %360 ]
  %374 = phi double [ undef, %347 ], [ %367, %360 ]
  %375 = icmp ult i64 %357, 3, !dbg !2009
  br i1 %375, label %376, label %381, !dbg !2009

376:                                              ; preds = %371, %381, %345
  %377 = phi double [ 0.000000e+00, %345 ], [ %374, %371 ], [ %402, %381 ], !dbg !1839
  call void @llvm.dbg.value(metadata double %377, metadata !272, metadata !DIExpression()), !dbg !1839
  %378 = load double*, double** @_ZZ7pspeedyP6PointsfPliP17pthread_barrier_tE5costs, align 8, !dbg !2018, !tbaa !1768
  %379 = getelementptr inbounds double, double* %378, i64 %12, !dbg !2018
  store double %377, double* %379, align 8, !dbg !2019, !tbaa !2020
  %380 = tail call i32 @pthread_barrier_wait(%union.pthread_barrier_t* %4) #15, !dbg !2022
  br i1 %38, label %405, label %480, !dbg !2023

381:                                              ; preds = %371, %381
  %382 = phi i64 [ %403, %381 ], [ %372, %371 ]
  %383 = phi double [ %402, %381 ], [ %373, %371 ]
  call void @llvm.dbg.value(metadata i64 %382, metadata !273, metadata !DIExpression()), !dbg !2008
  call void @llvm.dbg.value(metadata double %383, metadata !272, metadata !DIExpression()), !dbg !1839
  %384 = getelementptr inbounds %struct.Point, %struct.Point* %349, i64 %382, i32 3, !dbg !2013
  %385 = load float, float* %384, align 8, !dbg !2013, !tbaa !1882
  %386 = fpext float %385 to double, !dbg !2014
  %387 = fadd double %383, %386, !dbg !2015
  call void @llvm.dbg.value(metadata double %387, metadata !272, metadata !DIExpression()), !dbg !1839
  %388 = add nsw i64 %382, 1, !dbg !2016
  call void @llvm.dbg.value(metadata i64 %388, metadata !273, metadata !DIExpression()), !dbg !2008
  %389 = getelementptr inbounds %struct.Point, %struct.Point* %349, i64 %388, i32 3, !dbg !2013
  %390 = load float, float* %389, align 8, !dbg !2013, !tbaa !1882
  %391 = fpext float %390 to double, !dbg !2014
  %392 = fadd double %387, %391, !dbg !2015
  call void @llvm.dbg.value(metadata double %392, metadata !272, metadata !DIExpression()), !dbg !1839
  %393 = add nsw i64 %382, 2, !dbg !2016
  call void @llvm.dbg.value(metadata i64 %393, metadata !273, metadata !DIExpression()), !dbg !2008
  %394 = getelementptr inbounds %struct.Point, %struct.Point* %349, i64 %393, i32 3, !dbg !2013
  %395 = load float, float* %394, align 8, !dbg !2013, !tbaa !1882
  %396 = fpext float %395 to double, !dbg !2014
  %397 = fadd double %392, %396, !dbg !2015
  call void @llvm.dbg.value(metadata double %397, metadata !272, metadata !DIExpression()), !dbg !1839
  %398 = add nsw i64 %382, 3, !dbg !2016
  call void @llvm.dbg.value(metadata i64 %398, metadata !273, metadata !DIExpression()), !dbg !2008
  %399 = getelementptr inbounds %struct.Point, %struct.Point* %349, i64 %398, i32 3, !dbg !2013
  %400 = load float, float* %399, align 8, !dbg !2013, !tbaa !1882
  %401 = fpext float %400 to double, !dbg !2014
  %402 = fadd double %397, %401, !dbg !2015
  call void @llvm.dbg.value(metadata double %402, metadata !272, metadata !DIExpression()), !dbg !1839
  %403 = add nsw i64 %382, 4, !dbg !2016
  call void @llvm.dbg.value(metadata i64 %403, metadata !273, metadata !DIExpression()), !dbg !2008
  %404 = icmp sgt i64 %17, %403, !dbg !2024
  br i1 %404, label %381, label %376, !dbg !2009, !llvm.loop !2025

405:                                              ; preds = %376
  %406 = load i64, i64* %2, align 8, !dbg !2027, !tbaa !1769
  %407 = sitofp i64 %406 to float, !dbg !2028
  %408 = fmul float %407, %1, !dbg !2029
  %409 = fpext float %408 to double, !dbg !2030
  store double %409, double* @_ZZ7pspeedyP6PointsfPliP17pthread_barrier_tE9totalcost, align 8, !dbg !2031, !tbaa !2020
  call void @llvm.dbg.value(metadata i32 0, metadata !275, metadata !DIExpression()), !dbg !2032
  %410 = load i32, i32* @_ZL5nproc, align 4, !dbg !2033, !tbaa !1801
  %411 = icmp sgt i32 %410, 0, !dbg !2035
  br i1 %411, label %414, label %412, !dbg !2036

412:                                              ; preds = %405
  %413 = load i8*, i8** bitcast (double** @_ZZ7pspeedyP6PointsfPliP17pthread_barrier_tE5costs to i8**), align 8, !dbg !2037, !tbaa !1768
  br label %440, !dbg !2036

414:                                              ; preds = %405
  %415 = load double*, double** @_ZZ7pspeedyP6PointsfPliP17pthread_barrier_tE5costs, align 8, !dbg !2038, !tbaa !1768
  %416 = zext i32 %410 to i64, !dbg !2036
  %417 = bitcast double* %415 to i8*, !dbg !2036
  %418 = add nsw i64 %416, -1, !dbg !2036
  %419 = and i64 %416, 7, !dbg !2036
  %420 = icmp ult i64 %418, 7, !dbg !2036
  br i1 %420, label %423, label %421, !dbg !2036

421:                                              ; preds = %414
  %422 = sub nsw i64 %416, %419, !dbg !2036
  br label %442, !dbg !2036

423:                                              ; preds = %442, %414
  %424 = phi double [ undef, %414 ], [ %476, %442 ]
  %425 = phi i64 [ 0, %414 ], [ %477, %442 ]
  %426 = phi double [ %409, %414 ], [ %476, %442 ]
  %427 = icmp eq i64 %419, 0, !dbg !2036
  br i1 %427, label %438, label %428, !dbg !2036

428:                                              ; preds = %423, %428
  %429 = phi i64 [ %435, %428 ], [ %425, %423 ], !dbg !2032
  %430 = phi double [ %434, %428 ], [ %426, %423 ], !dbg !2032
  %431 = phi i64 [ %436, %428 ], [ %419, %423 ]
  call void @llvm.dbg.value(metadata i64 %429, metadata !275, metadata !DIExpression()), !dbg !2032
  %432 = getelementptr inbounds double, double* %415, i64 %429, !dbg !2040
  %433 = load double, double* %432, align 8, !dbg !2040, !tbaa !2020
  %434 = fadd double %433, %430, !dbg !2041
  %435 = add nuw nsw i64 %429, 1, !dbg !2042
  call void @llvm.dbg.value(metadata i64 %435, metadata !275, metadata !DIExpression()), !dbg !2032
  %436 = add i64 %431, -1, !dbg !2036
  %437 = icmp eq i64 %436, 0, !dbg !2036
  br i1 %437, label %438, label %428, !dbg !2036, !llvm.loop !2043

438:                                              ; preds = %428, %423
  %439 = phi double [ %424, %423 ], [ %434, %428 ], !dbg !2041
  store double %439, double* @_ZZ7pspeedyP6PointsfPliP17pthread_barrier_tE9totalcost, align 8, !dbg !2041, !tbaa !2020
  br label %440, !dbg !2036

440:                                              ; preds = %412, %438
  %441 = phi i8* [ %413, %412 ], [ %417, %438 ], !dbg !2037
  tail call void @free(i8* %441) #15, !dbg !2044
  br label %480, !dbg !2045

442:                                              ; preds = %442, %421
  %443 = phi i64 [ 0, %421 ], [ %477, %442 ], !dbg !2032
  %444 = phi double [ %409, %421 ], [ %476, %442 ], !dbg !2032
  %445 = phi i64 [ %422, %421 ], [ %478, %442 ]
  call void @llvm.dbg.value(metadata i64 %443, metadata !275, metadata !DIExpression()), !dbg !2032
  %446 = getelementptr inbounds double, double* %415, i64 %443, !dbg !2040
  %447 = load double, double* %446, align 8, !dbg !2040, !tbaa !2020
  %448 = fadd double %447, %444, !dbg !2041
  %449 = or i64 %443, 1, !dbg !2042
  call void @llvm.dbg.value(metadata i64 %449, metadata !275, metadata !DIExpression()), !dbg !2032
  %450 = getelementptr inbounds double, double* %415, i64 %449, !dbg !2040
  %451 = load double, double* %450, align 8, !dbg !2040, !tbaa !2020
  %452 = fadd double %451, %448, !dbg !2041
  %453 = or i64 %443, 2, !dbg !2042
  call void @llvm.dbg.value(metadata i64 %453, metadata !275, metadata !DIExpression()), !dbg !2032
  %454 = getelementptr inbounds double, double* %415, i64 %453, !dbg !2040
  %455 = load double, double* %454, align 8, !dbg !2040, !tbaa !2020
  %456 = fadd double %455, %452, !dbg !2041
  %457 = or i64 %443, 3, !dbg !2042
  call void @llvm.dbg.value(metadata i64 %457, metadata !275, metadata !DIExpression()), !dbg !2032
  %458 = getelementptr inbounds double, double* %415, i64 %457, !dbg !2040
  %459 = load double, double* %458, align 8, !dbg !2040, !tbaa !2020
  %460 = fadd double %459, %456, !dbg !2041
  %461 = or i64 %443, 4, !dbg !2042
  call void @llvm.dbg.value(metadata i64 %461, metadata !275, metadata !DIExpression()), !dbg !2032
  %462 = getelementptr inbounds double, double* %415, i64 %461, !dbg !2040
  %463 = load double, double* %462, align 8, !dbg !2040, !tbaa !2020
  %464 = fadd double %463, %460, !dbg !2041
  %465 = or i64 %443, 5, !dbg !2042
  call void @llvm.dbg.value(metadata i64 %465, metadata !275, metadata !DIExpression()), !dbg !2032
  %466 = getelementptr inbounds double, double* %415, i64 %465, !dbg !2040
  %467 = load double, double* %466, align 8, !dbg !2040, !tbaa !2020
  %468 = fadd double %467, %464, !dbg !2041
  %469 = or i64 %443, 6, !dbg !2042
  call void @llvm.dbg.value(metadata i64 %469, metadata !275, metadata !DIExpression()), !dbg !2032
  %470 = getelementptr inbounds double, double* %415, i64 %469, !dbg !2040
  %471 = load double, double* %470, align 8, !dbg !2040, !tbaa !2020
  %472 = fadd double %471, %468, !dbg !2041
  %473 = or i64 %443, 7, !dbg !2042
  call void @llvm.dbg.value(metadata i64 %473, metadata !275, metadata !DIExpression()), !dbg !2032
  %474 = getelementptr inbounds double, double* %415, i64 %473, !dbg !2040
  %475 = load double, double* %474, align 8, !dbg !2040, !tbaa !2020
  %476 = fadd double %475, %472, !dbg !2041
  %477 = add nuw nsw i64 %443, 8, !dbg !2042
  call void @llvm.dbg.value(metadata i64 %477, metadata !275, metadata !DIExpression()), !dbg !2032
  %478 = add i64 %445, -8, !dbg !2036
  %479 = icmp eq i64 %478, 0, !dbg !2036
  br i1 %479, label %423, label %442, !dbg !2036, !llvm.loop !2046

480:                                              ; preds = %440, %376
  %481 = tail call i32 @pthread_barrier_wait(%union.pthread_barrier_t* %4) #15, !dbg !2048
  %482 = load double, double* @_ZZ7pspeedyP6PointsfPliP17pthread_barrier_tE9totalcost, align 8, !dbg !2049, !tbaa !2020
  %483 = fptrunc double %482 to float, !dbg !2050
  ret float %483, !dbg !2051
}

; Function Attrs: nounwind
declare !dbg !27 dso_local i32 @pthread_barrier_wait(%union.pthread_barrier_t*) local_unnamed_addr #5

; Function Attrs: nofree nounwind
declare dso_local noalias i8* @malloc(i64) local_unnamed_addr #3

; Function Attrs: nounwind
declare !dbg !42 dso_local i32 @pthread_mutex_lock(%union.pthread_mutex_t*) local_unnamed_addr #5

declare !dbg !74 dso_local i32 @pthread_cond_wait(%union.pthread_cond_t*, %union.pthread_mutex_t*) local_unnamed_addr #7

; Function Attrs: nounwind
declare !dbg !116 dso_local i32 @pthread_mutex_unlock(%union.pthread_mutex_t*) local_unnamed_addr #5

; Function Attrs: nounwind
declare !dbg !118 dso_local i32 @pthread_cond_broadcast(%union.pthread_cond_t*) local_unnamed_addr #5

; Function Attrs: nounwind
declare !dbg !121 dso_local void @free(i8* nocapture) local_unnamed_addr #5

; Function Attrs: nounwind uwtable
define dso_local double @_Z5pgainlP6PointsdPliP17pthread_barrier_t(i64 %0, %struct.Points* nocapture readonly %1, double %2, i64* nocapture %3, i32 %4, %union.pthread_barrier_t* %5) local_unnamed_addr #0 !dbg !293 {
  call void @llvm.dbg.value(metadata i64 %0, metadata !297, metadata !DIExpression()), !dbg !2052
  call void @llvm.dbg.value(metadata %struct.Points* %1, metadata !298, metadata !DIExpression()), !dbg !2052
  call void @llvm.dbg.value(metadata double %2, metadata !299, metadata !DIExpression()), !dbg !2052
  call void @llvm.dbg.value(metadata i64* %3, metadata !300, metadata !DIExpression()), !dbg !2052
  call void @llvm.dbg.value(metadata i32 %4, metadata !301, metadata !DIExpression()), !dbg !2052
  call void @llvm.dbg.value(metadata %union.pthread_barrier_t* %5, metadata !302, metadata !DIExpression()), !dbg !2052
  %7 = tail call i32 @pthread_barrier_wait(%union.pthread_barrier_t* %5) #15, !dbg !2053
  %8 = getelementptr inbounds %struct.Points, %struct.Points* %1, i64 0, i32 0, !dbg !2054
  %9 = load i64, i64* %8, align 8, !dbg !2054, !tbaa !1750
  %10 = load i32, i32* @_ZL5nproc, align 4, !dbg !2055, !tbaa !1801
  %11 = sext i32 %10 to i64, !dbg !2055
  %12 = sdiv i64 %9, %11, !dbg !2056
  call void @llvm.dbg.value(metadata i64 %12, metadata !303, metadata !DIExpression()), !dbg !2052
  %13 = sext i32 %4 to i64, !dbg !2057
  %14 = mul nsw i64 %12, %13, !dbg !2058
  call void @llvm.dbg.value(metadata i64 %14, metadata !304, metadata !DIExpression()), !dbg !2052
  %15 = add nsw i64 %14, %12, !dbg !2059
  call void @llvm.dbg.value(metadata i64 %15, metadata !305, metadata !DIExpression()), !dbg !2052
  %16 = add nsw i32 %10, -1, !dbg !2060
  %17 = icmp eq i32 %16, %4, !dbg !2062
  %18 = select i1 %17, i64 %9, i64 %15, !dbg !2063
  call void @llvm.dbg.value(metadata i64 %18, metadata !305, metadata !DIExpression()), !dbg !2052
  call void @llvm.dbg.value(metadata i32 0, metadata !307, metadata !DIExpression()), !dbg !2052
  %19 = load i64, i64* %3, align 8, !dbg !2064, !tbaa !1769
  %20 = trunc i64 %19 to i32, !dbg !2064
  %21 = add i32 %20, 2, !dbg !2064
  call void @llvm.dbg.value(metadata i32 %21, metadata !308, metadata !DIExpression()), !dbg !2052
  call void @llvm.dbg.value(metadata i32 64, metadata !309, metadata !DIExpression()), !dbg !2052
  %22 = and i32 %21, 63, !dbg !2065
  %23 = icmp eq i32 %22, 0, !dbg !2065
  br i1 %23, label %28, label %24, !dbg !2067

24:                                               ; preds = %6
  %25 = sdiv i32 %21, 64, !dbg !2068
  %26 = shl nsw i32 %25, 6, !dbg !2070
  %27 = add i32 %26, 64, !dbg !2070
  call void @llvm.dbg.value(metadata i32 %27, metadata !308, metadata !DIExpression()), !dbg !2052
  br label %28, !dbg !2071

28:                                               ; preds = %6, %24
  %29 = phi i32 [ %27, %24 ], [ %21, %6 ], !dbg !2052
  call void @llvm.dbg.value(metadata i32 %29, metadata !308, metadata !DIExpression()), !dbg !2052
  %30 = add nsw i32 %29, -2, !dbg !2072
  call void @llvm.dbg.value(metadata i32 %30, metadata !310, metadata !DIExpression()), !dbg !2052
  call void @llvm.dbg.value(metadata double 0.000000e+00, metadata !311, metadata !DIExpression()), !dbg !2052
  %31 = icmp eq i32 %4, 0, !dbg !2073
  br i1 %31, label %32, label %38, !dbg !2075

32:                                               ; preds = %28
  %33 = add nsw i32 %10, 1, !dbg !2076
  %34 = mul nsw i32 %29, %33, !dbg !2078
  %35 = sext i32 %34 to i64, !dbg !2079
  %36 = shl nsw i64 %35, 3, !dbg !2080
  %37 = tail call noalias i8* @malloc(i64 %36) #15, !dbg !2081
  store i8* %37, i8** bitcast (double** @_ZZ5pgainlP6PointsdPliP17pthread_barrier_tE8work_mem to i8**), align 8, !dbg !2082, !tbaa !1768
  store double 0.000000e+00, double* @_ZZ5pgainlP6PointsdPliP17pthread_barrier_tE20gl_cost_of_opening_x, align 8, !dbg !2083, !tbaa !2020
  store i32 0, i32* @_ZZ5pgainlP6PointsdPliP17pthread_barrier_tE29gl_number_of_centers_to_close, align 4, !dbg !2084, !tbaa !1801
  br label %38, !dbg !2085

38:                                               ; preds = %32, %28
  %39 = tail call i32 @pthread_barrier_wait(%union.pthread_barrier_t* %5) #15, !dbg !2086
  call void @llvm.dbg.value(metadata i32 0, metadata !312, metadata !DIExpression()), !dbg !2052
  call void @llvm.dbg.value(metadata i64 %14, metadata !313, metadata !DIExpression(DW_OP_LLVM_convert, 64, DW_ATE_unsigned, DW_OP_LLVM_convert, 32, DW_ATE_unsigned, DW_OP_stack_value)), !dbg !2087
  call void @llvm.dbg.value(metadata i32 0, metadata !312, metadata !DIExpression()), !dbg !2052
  %40 = shl i64 %14, 32, !dbg !2088
  %41 = ashr exact i64 %40, 32, !dbg !2088
  %42 = icmp sgt i64 %18, %41, !dbg !2090
  br i1 %42, label %43, label %69, !dbg !2091

43:                                               ; preds = %38
  call void @llvm.dbg.value(metadata i64 %14, metadata !313, metadata !DIExpression(DW_OP_LLVM_convert, 64, DW_ATE_unsigned, DW_OP_LLVM_convert, 32, DW_ATE_unsigned, DW_OP_stack_value)), !dbg !2087
  %44 = load i8*, i8** @_ZL9is_center, align 8, !dbg !2092, !tbaa !1768
  %45 = load i32*, i32** @_ZL12center_table, align 8, !dbg !2095
  %46 = shl i64 %14, 32, !dbg !2091
  %47 = ashr exact i64 %46, 32, !dbg !2091
  %48 = trunc i64 %12 to i32, !dbg !2091
  %49 = mul i32 %48, %4, !dbg !2091
  %50 = sext i32 %49 to i64, !dbg !2091
  %51 = sub i64 %18, %50, !dbg !2091
  %52 = and i64 %51, 1, !dbg !2091
  %53 = add nsw i64 %50, 1, !dbg !2091
  %54 = icmp eq i64 %18, %53, !dbg !2091
  br i1 %54, label %57, label %55, !dbg !2091

55:                                               ; preds = %43
  %56 = sub i64 %51, %52, !dbg !2091
  br label %88, !dbg !2091

57:                                               ; preds = %685, %43
  %58 = phi i32 [ undef, %43 ], [ %686, %685 ]
  %59 = phi i64 [ %47, %43 ], [ %687, %685 ]
  %60 = phi i32 [ 0, %43 ], [ %686, %685 ]
  %61 = icmp eq i64 %52, 0, !dbg !2097
  br i1 %61, label %69, label %62, !dbg !2097

62:                                               ; preds = %57
  call void @llvm.dbg.value(metadata i32 %60, metadata !312, metadata !DIExpression()), !dbg !2052
  call void @llvm.dbg.value(metadata i64 %59, metadata !313, metadata !DIExpression()), !dbg !2087
  %63 = getelementptr inbounds i8, i8* %44, i64 %59, !dbg !2098
  %64 = load i8, i8* %63, align 1, !dbg !2098, !tbaa !2099, !range !2101
  %65 = icmp eq i8 %64, 0, !dbg !2098
  br i1 %65, label %69, label %66, !dbg !2097

66:                                               ; preds = %62
  %67 = add nsw i32 %60, 1, !dbg !2102
  call void @llvm.dbg.value(metadata i32 %67, metadata !312, metadata !DIExpression()), !dbg !2052
  %68 = getelementptr inbounds i32, i32* %45, i64 %59, !dbg !2103
  store i32 %60, i32* %68, align 4, !dbg !2104, !tbaa !1801
  br label %69, !dbg !2105

69:                                               ; preds = %57, %62, %66, %38
  %70 = phi i32 [ 0, %38 ], [ %58, %57 ], [ %67, %66 ], [ %60, %62 ], !dbg !2052
  call void @llvm.dbg.value(metadata i32 %70, metadata !312, metadata !DIExpression()), !dbg !2052
  %71 = sitofp i32 %70 to double, !dbg !2106
  %72 = load double*, double** @_ZZ5pgainlP6PointsdPliP17pthread_barrier_tE8work_mem, align 8, !dbg !2107, !tbaa !1768
  %73 = mul nsw i32 %29, %4, !dbg !2108
  %74 = sext i32 %73 to i64, !dbg !2107
  %75 = getelementptr inbounds double, double* %72, i64 %74, !dbg !2107
  store double %71, double* %75, align 8, !dbg !2109, !tbaa !2020
  %76 = tail call i32 @pthread_barrier_wait(%union.pthread_barrier_t* %5) #15, !dbg !2110
  %77 = load i32, i32* @_ZL5nproc, align 4, !dbg !2111
  %78 = icmp sgt i32 %77, 0, !dbg !2112
  %79 = and i1 %31, %78, !dbg !2113
  call void @llvm.dbg.value(metadata i32 0, metadata !318, metadata !DIExpression()), !dbg !2114
  call void @llvm.dbg.value(metadata i32 0, metadata !315, metadata !DIExpression()), !dbg !2115
  br i1 %79, label %80, label %132, !dbg !2113

80:                                               ; preds = %69
  %81 = load double*, double** @_ZZ5pgainlP6PointsdPliP17pthread_barrier_tE8work_mem, align 8, !dbg !2116, !tbaa !1768
  %82 = sext i32 %29 to i64, !dbg !2117
  %83 = zext i32 %77 to i64, !dbg !2117
  %84 = and i64 %83, 1, !dbg !2117
  %85 = icmp eq i32 %77, 1, !dbg !2117
  br i1 %85, label %124, label %86, !dbg !2117

86:                                               ; preds = %80
  %87 = sub nsw i64 %83, %84, !dbg !2117
  br label %104, !dbg !2117

88:                                               ; preds = %685, %55
  %89 = phi i64 [ %47, %55 ], [ %687, %685 ]
  %90 = phi i32 [ 0, %55 ], [ %686, %685 ]
  %91 = phi i64 [ %56, %55 ], [ %688, %685 ]
  call void @llvm.dbg.value(metadata i32 %90, metadata !312, metadata !DIExpression()), !dbg !2052
  call void @llvm.dbg.value(metadata i64 %89, metadata !313, metadata !DIExpression()), !dbg !2087
  %92 = getelementptr inbounds i8, i8* %44, i64 %89, !dbg !2098
  %93 = load i8, i8* %92, align 1, !dbg !2098, !tbaa !2099, !range !2101
  %94 = icmp eq i8 %93, 0, !dbg !2098
  br i1 %94, label %98, label %95, !dbg !2097

95:                                               ; preds = %88
  %96 = add nsw i32 %90, 1, !dbg !2102
  call void @llvm.dbg.value(metadata i32 %96, metadata !312, metadata !DIExpression()), !dbg !2052
  %97 = getelementptr inbounds i32, i32* %45, i64 %89, !dbg !2103
  store i32 %90, i32* %97, align 4, !dbg !2104, !tbaa !1801
  br label %98, !dbg !2105

98:                                               ; preds = %88, %95
  %99 = phi i32 [ %96, %95 ], [ %90, %88 ], !dbg !2052
  call void @llvm.dbg.value(metadata i32 %99, metadata !312, metadata !DIExpression()), !dbg !2052
  %100 = add nsw i64 %89, 1, !dbg !2118
  call void @llvm.dbg.value(metadata i64 %100, metadata !313, metadata !DIExpression()), !dbg !2087
  %101 = getelementptr inbounds i8, i8* %44, i64 %100, !dbg !2098
  %102 = load i8, i8* %101, align 1, !dbg !2098, !tbaa !2099, !range !2101
  %103 = icmp eq i8 %102, 0, !dbg !2098
  br i1 %103, label %685, label %682, !dbg !2097

104:                                              ; preds = %104, %86
  %105 = phi i64 [ 0, %86 ], [ %121, %104 ]
  %106 = phi i32 [ 0, %86 ], [ %120, %104 ]
  %107 = phi i64 [ %87, %86 ], [ %122, %104 ]
  call void @llvm.dbg.value(metadata i64 %105, metadata !318, metadata !DIExpression()), !dbg !2114
  call void @llvm.dbg.value(metadata i32 %106, metadata !315, metadata !DIExpression()), !dbg !2115
  %108 = mul nsw i64 %105, %82, !dbg !2119
  %109 = getelementptr inbounds double, double* %81, i64 %108, !dbg !2120
  %110 = load double, double* %109, align 8, !dbg !2120, !tbaa !2020
  %111 = fptosi double %110 to i32, !dbg !2120
  call void @llvm.dbg.value(metadata i32 %111, metadata !320, metadata !DIExpression()), !dbg !2116
  %112 = sitofp i32 %106 to double, !dbg !2121
  store double %112, double* %109, align 8, !dbg !2122, !tbaa !2020
  %113 = add nsw i32 %106, %111, !dbg !2123
  call void @llvm.dbg.value(metadata i32 %113, metadata !315, metadata !DIExpression()), !dbg !2115
  %114 = or i64 %105, 1, !dbg !2124
  call void @llvm.dbg.value(metadata i64 %114, metadata !318, metadata !DIExpression()), !dbg !2114
  %115 = mul nsw i64 %114, %82, !dbg !2119
  %116 = getelementptr inbounds double, double* %81, i64 %115, !dbg !2120
  %117 = load double, double* %116, align 8, !dbg !2120, !tbaa !2020
  %118 = fptosi double %117 to i32, !dbg !2120
  call void @llvm.dbg.value(metadata i32 %118, metadata !320, metadata !DIExpression()), !dbg !2116
  %119 = sitofp i32 %113 to double, !dbg !2121
  store double %119, double* %116, align 8, !dbg !2122, !tbaa !2020
  %120 = add nsw i32 %113, %118, !dbg !2123
  call void @llvm.dbg.value(metadata i32 %120, metadata !315, metadata !DIExpression()), !dbg !2115
  %121 = add nuw nsw i64 %105, 2, !dbg !2124
  call void @llvm.dbg.value(metadata i64 %121, metadata !318, metadata !DIExpression()), !dbg !2114
  %122 = add i64 %107, -2, !dbg !2117
  %123 = icmp eq i64 %122, 0, !dbg !2117
  br i1 %123, label %124, label %104, !dbg !2117, !llvm.loop !2125

124:                                              ; preds = %104, %80
  %125 = phi i64 [ 0, %80 ], [ %121, %104 ]
  %126 = phi i32 [ 0, %80 ], [ %120, %104 ]
  %127 = icmp eq i64 %84, 0, !dbg !2117
  br i1 %127, label %132, label %128, !dbg !2117

128:                                              ; preds = %124
  call void @llvm.dbg.value(metadata i64 %125, metadata !318, metadata !DIExpression()), !dbg !2114
  call void @llvm.dbg.value(metadata i32 %126, metadata !315, metadata !DIExpression()), !dbg !2115
  %129 = mul nsw i64 %125, %82, !dbg !2119
  %130 = getelementptr inbounds double, double* %81, i64 %129, !dbg !2120
  call void @llvm.dbg.value(metadata i32 undef, metadata !320, metadata !DIExpression()), !dbg !2116
  %131 = sitofp i32 %126 to double, !dbg !2121
  store double %131, double* %130, align 8, !dbg !2122, !tbaa !2020
  call void @llvm.dbg.value(metadata i32 undef, metadata !315, metadata !DIExpression()), !dbg !2115
  call void @llvm.dbg.value(metadata i64 %125, metadata !318, metadata !DIExpression(DW_OP_plus_uconst, 1, DW_OP_stack_value)), !dbg !2114
  br label %132, !dbg !2127

132:                                              ; preds = %128, %124, %69
  %133 = tail call i32 @pthread_barrier_wait(%union.pthread_barrier_t* %5) #15, !dbg !2127
  call void @llvm.dbg.value(metadata i64 %14, metadata !323, metadata !DIExpression(DW_OP_LLVM_convert, 64, DW_ATE_unsigned, DW_OP_LLVM_convert, 32, DW_ATE_unsigned, DW_OP_stack_value)), !dbg !2128
  br i1 %42, label %136, label %134, !dbg !2129

134:                                              ; preds = %132
  %135 = load double*, double** @_ZZ5pgainlP6PointsdPliP17pthread_barrier_tE8work_mem, align 8, !dbg !2130, !tbaa !1768
  br label %165, !dbg !2129

136:                                              ; preds = %132
  %137 = load i8*, i8** @_ZL9is_center, align 8, !dbg !2131, !tbaa !1768
  %138 = load double*, double** @_ZZ5pgainlP6PointsdPliP17pthread_barrier_tE8work_mem, align 8, !dbg !2135
  %139 = getelementptr inbounds double, double* %138, i64 %74, !dbg !2135
  %140 = load i32*, i32** @_ZL12center_table, align 8, !dbg !2135
  %141 = shl i64 %14, 32, !dbg !2129
  %142 = ashr exact i64 %141, 32, !dbg !2129
  %143 = trunc i64 %12 to i32, !dbg !2129
  %144 = mul i32 %143, %4, !dbg !2129
  %145 = sext i32 %144 to i64, !dbg !2129
  %146 = sub i64 %18, %145, !dbg !2129
  %147 = and i64 %146, 1, !dbg !2129
  %148 = icmp eq i64 %147, 0, !dbg !2129
  br i1 %148, label %161, label %149, !dbg !2129

149:                                              ; preds = %136
  call void @llvm.dbg.value(metadata i64 %142, metadata !323, metadata !DIExpression()), !dbg !2128
  %150 = getelementptr inbounds i8, i8* %137, i64 %142, !dbg !2137
  %151 = load i8, i8* %150, align 1, !dbg !2137, !tbaa !2099, !range !2101
  %152 = icmp eq i8 %151, 0, !dbg !2137
  br i1 %152, label %159, label %153, !dbg !2138

153:                                              ; preds = %149
  %154 = load double, double* %139, align 8, !dbg !2139, !tbaa !2020
  %155 = fptosi double %154 to i32, !dbg !2139
  %156 = getelementptr inbounds i32, i32* %140, i64 %142, !dbg !2140
  %157 = load i32, i32* %156, align 4, !dbg !2141, !tbaa !1801
  %158 = add nsw i32 %157, %155, !dbg !2141
  store i32 %158, i32* %156, align 4, !dbg !2141, !tbaa !1801
  br label %159, !dbg !2142

159:                                              ; preds = %153, %149
  %160 = add nsw i64 %142, 1, !dbg !2143
  call void @llvm.dbg.value(metadata i64 %160, metadata !323, metadata !DIExpression()), !dbg !2128
  br label %161, !dbg !2129

161:                                              ; preds = %136, %159
  %162 = phi i64 [ %142, %136 ], [ %160, %159 ]
  %163 = add nsw i64 %145, 1, !dbg !2129
  %164 = icmp eq i64 %18, %163, !dbg !2129
  br i1 %164, label %165, label %174, !dbg !2129

165:                                              ; preds = %161, %679, %134
  %166 = phi double* [ %135, %134 ], [ %138, %679 ], [ %138, %161 ], !dbg !2130
  %167 = load i8*, i8** @_ZL17switch_membership, align 8, !dbg !2144, !tbaa !1768
  %168 = getelementptr inbounds i8, i8* %167, i64 %14, !dbg !2145
  %169 = sub nsw i64 %18, %14, !dbg !2146
  tail call void @llvm.memset.p0i8.i64(i8* align 1 %168, i8 0, i64 %169, i1 false), !dbg !2147
  %170 = getelementptr inbounds double, double* %166, i64 %74, !dbg !2148
  %171 = bitcast double* %170 to i8*, !dbg !2149
  %172 = sext i32 %29 to i64, !dbg !2150
  %173 = shl nsw i64 %172, 3, !dbg !2151
  tail call void @llvm.memset.p0i8.i64(i8* align 8 %171, i8 0, i64 %173, i1 false), !dbg !2149
  br i1 %31, label %190, label %196, !dbg !2152

174:                                              ; preds = %161, %679
  %175 = phi i64 [ %680, %679 ], [ %162, %161 ]
  call void @llvm.dbg.value(metadata i64 %175, metadata !323, metadata !DIExpression()), !dbg !2128
  %176 = getelementptr inbounds i8, i8* %137, i64 %175, !dbg !2137
  %177 = load i8, i8* %176, align 1, !dbg !2137, !tbaa !2099, !range !2101
  %178 = icmp eq i8 %177, 0, !dbg !2137
  br i1 %178, label %185, label %179, !dbg !2138

179:                                              ; preds = %174
  %180 = load double, double* %139, align 8, !dbg !2139, !tbaa !2020
  %181 = fptosi double %180 to i32, !dbg !2139
  %182 = getelementptr inbounds i32, i32* %140, i64 %175, !dbg !2140
  %183 = load i32, i32* %182, align 4, !dbg !2141, !tbaa !1801
  %184 = add nsw i32 %183, %181, !dbg !2141
  store i32 %184, i32* %182, align 4, !dbg !2141, !tbaa !1801
  br label %185, !dbg !2142

185:                                              ; preds = %174, %179
  %186 = add nsw i64 %175, 1, !dbg !2143
  call void @llvm.dbg.value(metadata i64 %186, metadata !323, metadata !DIExpression()), !dbg !2128
  %187 = getelementptr inbounds i8, i8* %137, i64 %186, !dbg !2137
  %188 = load i8, i8* %187, align 1, !dbg !2137, !tbaa !2099, !range !2101
  %189 = icmp eq i8 %188, 0, !dbg !2137
  br i1 %189, label %679, label %673, !dbg !2138

190:                                              ; preds = %165
  %191 = load i32, i32* @_ZL5nproc, align 4, !dbg !2153, !tbaa !1801
  %192 = mul nsw i32 %191, %29, !dbg !2155
  %193 = sext i32 %192 to i64, !dbg !2156
  %194 = getelementptr inbounds double, double* %166, i64 %193, !dbg !2156
  %195 = bitcast double* %194 to i8*, !dbg !2157
  tail call void @llvm.memset.p0i8.i64(i8* align 8 %195, i8 0, i64 %173, i1 false), !dbg !2157
  br label %196, !dbg !2157

196:                                              ; preds = %190, %165
  %197 = tail call i32 @pthread_barrier_wait(%union.pthread_barrier_t* %5) #15, !dbg !2158
  %198 = load double*, double** @_ZZ5pgainlP6PointsdPliP17pthread_barrier_tE8work_mem, align 8, !dbg !2159, !tbaa !1768
  %199 = getelementptr inbounds double, double* %198, i64 %74, !dbg !2159
  call void @llvm.dbg.value(metadata double* %199, metadata !325, metadata !DIExpression()), !dbg !2052
  %200 = load i32, i32* @_ZL5nproc, align 4, !dbg !2160, !tbaa !1801
  %201 = mul nsw i32 %200, %29, !dbg !2161
  %202 = sext i32 %201 to i64, !dbg !2162
  %203 = getelementptr inbounds double, double* %198, i64 %202, !dbg !2162
  call void @llvm.dbg.value(metadata double* %203, metadata !326, metadata !DIExpression()), !dbg !2052
  call void @llvm.dbg.value(metadata i64 %14, metadata !306, metadata !DIExpression(DW_OP_LLVM_convert, 64, DW_ATE_unsigned, DW_OP_LLVM_convert, 32, DW_ATE_unsigned, DW_OP_stack_value)), !dbg !2052
  call void @llvm.dbg.value(metadata double 0.000000e+00, metadata !311, metadata !DIExpression()), !dbg !2052
  br i1 %42, label %206, label %204, !dbg !2163

204:                                              ; preds = %196
  call void @llvm.dbg.value(metadata double %313, metadata !311, metadata !DIExpression()), !dbg !2052
  %205 = tail call i32 @pthread_barrier_wait(%union.pthread_barrier_t* %5) #15, !dbg !2164
  call void @llvm.dbg.value(metadata i64 %14, metadata !335, metadata !DIExpression(DW_OP_LLVM_convert, 64, DW_ATE_unsigned, DW_OP_LLVM_convert, 32, DW_ATE_unsigned, DW_OP_stack_value)), !dbg !2165
  call void @llvm.dbg.value(metadata i32 0, metadata !307, metadata !DIExpression()), !dbg !2052
  call void @llvm.dbg.value(metadata double %313, metadata !311, metadata !DIExpression()), !dbg !2052
  br label %318, !dbg !2166

206:                                              ; preds = %196
  %207 = getelementptr inbounds %struct.Points, %struct.Points* %1, i64 0, i32 2, !dbg !2167
  %208 = load %struct.Point*, %struct.Point** %207, align 8, !dbg !2167, !tbaa !1764
  %209 = getelementptr inbounds %struct.Point, %struct.Point* %208, i64 %0, i32 1, !dbg !2167
  %210 = getelementptr inbounds %struct.Points, %struct.Points* %1, i64 0, i32 1, !dbg !2167
  %211 = load i32, i32* %210, align 8, !dbg !2167, !tbaa !1856
  %212 = icmp sgt i32 %211, 0, !dbg !2168
  %213 = zext i32 %211 to i64, !dbg !2168
  %214 = load i32*, i32** @_ZL12center_table, align 8, !dbg !2170
  %215 = load i8*, i8** @_ZL17switch_membership, align 8, !dbg !2171
  %216 = shl i64 %14, 32, !dbg !2163
  %217 = ashr exact i64 %216, 32, !dbg !2163
  %218 = add nsw i64 %213, -1, !dbg !2163
  %219 = and i64 %213, 3, !dbg !2173
  %220 = icmp ult i64 %218, 3, !dbg !2173
  %221 = sub nsw i64 %213, %219, !dbg !2173
  %222 = icmp eq i64 %219, 0, !dbg !2173
  br label %223, !dbg !2163

223:                                              ; preds = %206, %312
  %224 = phi i64 [ %217, %206 ], [ %314, %312 ]
  %225 = phi double [ 0.000000e+00, %206 ], [ %313, %312 ]
  call void @llvm.dbg.value(metadata i64 %224, metadata !306, metadata !DIExpression()), !dbg !2052
  call void @llvm.dbg.value(metadata double %225, metadata !311, metadata !DIExpression()), !dbg !2052
  call void @llvm.dbg.value(metadata i64 undef, metadata !1813, metadata !DIExpression(DW_OP_LLVM_fragment, 0, 64)), !dbg !2174
  %226 = getelementptr inbounds %struct.Point, %struct.Point* %208, i64 %224, i32 1, !dbg !2175
  %227 = load float*, float** %226, align 8, !dbg !2175, !tbaa.struct !1767
  call void @llvm.dbg.value(metadata float* %227, metadata !1813, metadata !DIExpression(DW_OP_LLVM_fragment, 64, 64)), !dbg !2174
  call void @llvm.dbg.value(metadata i64 undef, metadata !1814, metadata !DIExpression(DW_OP_LLVM_fragment, 0, 64)), !dbg !2174
  %228 = load float*, float** %209, align 8, !dbg !2176, !tbaa.struct !1767
  call void @llvm.dbg.value(metadata float* %228, metadata !1814, metadata !DIExpression(DW_OP_LLVM_fragment, 64, 64)), !dbg !2174
  call void @llvm.dbg.value(metadata i32 %211, metadata !1815, metadata !DIExpression()), !dbg !2174
  call void @llvm.dbg.value(metadata float 0.000000e+00, metadata !1817, metadata !DIExpression()), !dbg !2174
  call void @llvm.dbg.value(metadata i32 0, metadata !1816, metadata !DIExpression()), !dbg !2174
  br i1 %212, label %229, label %286, !dbg !2177

229:                                              ; preds = %223
  br i1 %220, label %268, label %230, !dbg !2177

230:                                              ; preds = %229, %230
  %231 = phi i64 [ %265, %230 ], [ 0, %229 ]
  %232 = phi float [ %264, %230 ], [ 0.000000e+00, %229 ]
  %233 = phi i64 [ %266, %230 ], [ %221, %229 ]
  call void @llvm.dbg.value(metadata float %232, metadata !1817, metadata !DIExpression()), !dbg !2174
  call void @llvm.dbg.value(metadata i64 %231, metadata !1816, metadata !DIExpression()), !dbg !2174
  %234 = getelementptr inbounds float, float* %227, i64 %231, !dbg !2178
  %235 = load float, float* %234, align 4, !dbg !2178, !tbaa !1725
  %236 = getelementptr inbounds float, float* %228, i64 %231, !dbg !2179
  %237 = load float, float* %236, align 4, !dbg !2179, !tbaa !1725
  %238 = fsub float %235, %237, !dbg !2180
  %239 = fmul float %238, %238, !dbg !2181
  %240 = fadd float %232, %239, !dbg !2182
  call void @llvm.dbg.value(metadata float %240, metadata !1817, metadata !DIExpression()), !dbg !2174
  %241 = or i64 %231, 1, !dbg !2183
  call void @llvm.dbg.value(metadata i64 %241, metadata !1816, metadata !DIExpression()), !dbg !2174
  %242 = getelementptr inbounds float, float* %227, i64 %241, !dbg !2178
  %243 = load float, float* %242, align 4, !dbg !2178, !tbaa !1725
  %244 = getelementptr inbounds float, float* %228, i64 %241, !dbg !2179
  %245 = load float, float* %244, align 4, !dbg !2179, !tbaa !1725
  %246 = fsub float %243, %245, !dbg !2180
  %247 = fmul float %246, %246, !dbg !2181
  %248 = fadd float %240, %247, !dbg !2182
  call void @llvm.dbg.value(metadata float %248, metadata !1817, metadata !DIExpression()), !dbg !2174
  %249 = or i64 %231, 2, !dbg !2183
  call void @llvm.dbg.value(metadata i64 %249, metadata !1816, metadata !DIExpression()), !dbg !2174
  %250 = getelementptr inbounds float, float* %227, i64 %249, !dbg !2178
  %251 = load float, float* %250, align 4, !dbg !2178, !tbaa !1725
  %252 = getelementptr inbounds float, float* %228, i64 %249, !dbg !2179
  %253 = load float, float* %252, align 4, !dbg !2179, !tbaa !1725
  %254 = fsub float %251, %253, !dbg !2180
  %255 = fmul float %254, %254, !dbg !2181
  %256 = fadd float %248, %255, !dbg !2182
  call void @llvm.dbg.value(metadata float %256, metadata !1817, metadata !DIExpression()), !dbg !2174
  %257 = or i64 %231, 3, !dbg !2183
  call void @llvm.dbg.value(metadata i64 %257, metadata !1816, metadata !DIExpression()), !dbg !2174
  %258 = getelementptr inbounds float, float* %227, i64 %257, !dbg !2178
  %259 = load float, float* %258, align 4, !dbg !2178, !tbaa !1725
  %260 = getelementptr inbounds float, float* %228, i64 %257, !dbg !2179
  %261 = load float, float* %260, align 4, !dbg !2179, !tbaa !1725
  %262 = fsub float %259, %261, !dbg !2180
  %263 = fmul float %262, %262, !dbg !2181
  %264 = fadd float %256, %263, !dbg !2182
  call void @llvm.dbg.value(metadata float %264, metadata !1817, metadata !DIExpression()), !dbg !2174
  %265 = add nuw nsw i64 %231, 4, !dbg !2183
  call void @llvm.dbg.value(metadata i64 %265, metadata !1816, metadata !DIExpression()), !dbg !2174
  %266 = add i64 %233, -4, !dbg !2177
  %267 = icmp eq i64 %266, 0, !dbg !2177
  br i1 %267, label %268, label %230, !dbg !2177, !llvm.loop !2184

268:                                              ; preds = %230, %229
  %269 = phi float [ undef, %229 ], [ %264, %230 ]
  %270 = phi i64 [ 0, %229 ], [ %265, %230 ]
  %271 = phi float [ 0.000000e+00, %229 ], [ %264, %230 ]
  br i1 %222, label %286, label %272, !dbg !2177

272:                                              ; preds = %268, %272
  %273 = phi i64 [ %283, %272 ], [ %270, %268 ]
  %274 = phi float [ %282, %272 ], [ %271, %268 ]
  %275 = phi i64 [ %284, %272 ], [ %219, %268 ]
  call void @llvm.dbg.value(metadata float %274, metadata !1817, metadata !DIExpression()), !dbg !2174
  call void @llvm.dbg.value(metadata i64 %273, metadata !1816, metadata !DIExpression()), !dbg !2174
  %276 = getelementptr inbounds float, float* %227, i64 %273, !dbg !2178
  %277 = load float, float* %276, align 4, !dbg !2178, !tbaa !1725
  %278 = getelementptr inbounds float, float* %228, i64 %273, !dbg !2179
  %279 = load float, float* %278, align 4, !dbg !2179, !tbaa !1725
  %280 = fsub float %277, %279, !dbg !2180
  %281 = fmul float %280, %280, !dbg !2181
  %282 = fadd float %274, %281, !dbg !2182
  call void @llvm.dbg.value(metadata float %282, metadata !1817, metadata !DIExpression()), !dbg !2174
  %283 = add nuw nsw i64 %273, 1, !dbg !2183
  call void @llvm.dbg.value(metadata i64 %283, metadata !1816, metadata !DIExpression()), !dbg !2174
  %284 = add i64 %275, -1, !dbg !2177
  %285 = icmp eq i64 %284, 0, !dbg !2177
  br i1 %285, label %286, label %272, !dbg !2177, !llvm.loop !2186

286:                                              ; preds = %268, %272, %223
  %287 = phi float [ 0.000000e+00, %223 ], [ %269, %268 ], [ %282, %272 ], !dbg !2174
  call void @llvm.dbg.value(metadata float %287, metadata !1817, metadata !DIExpression()), !dbg !2174
  %288 = getelementptr inbounds %struct.Point, %struct.Point* %208, i64 %224, i32 0, !dbg !2187
  %289 = load float, float* %288, align 8, !dbg !2187, !tbaa !1878
  %290 = fmul float %287, %289, !dbg !2188
  call void @llvm.dbg.value(metadata float %290, metadata !327, metadata !DIExpression()), !dbg !2167
  %291 = getelementptr inbounds %struct.Point, %struct.Point* %208, i64 %224, i32 3, !dbg !2189
  %292 = load float, float* %291, align 8, !dbg !2189, !tbaa !1882
  call void @llvm.dbg.value(metadata float %292, metadata !331, metadata !DIExpression()), !dbg !2167
  %293 = fcmp olt float %290, %292, !dbg !2190
  br i1 %293, label %294, label %299, !dbg !2191

294:                                              ; preds = %286
  %295 = getelementptr inbounds i8, i8* %215, i64 %224, !dbg !2192
  store i8 1, i8* %295, align 1, !dbg !2193, !tbaa !2099
  %296 = fsub float %290, %292, !dbg !2194
  %297 = fpext float %296 to double, !dbg !2195
  %298 = fadd double %225, %297, !dbg !2196
  call void @llvm.dbg.value(metadata double %298, metadata !311, metadata !DIExpression()), !dbg !2052
  br label %312, !dbg !2197

299:                                              ; preds = %286
  %300 = getelementptr inbounds %struct.Point, %struct.Point* %208, i64 %224, i32 2, !dbg !2198
  %301 = load i64, i64* %300, align 8, !dbg !2198, !tbaa !1885
  call void @llvm.dbg.value(metadata i64 %301, metadata !332, metadata !DIExpression(DW_OP_LLVM_convert, 64, DW_ATE_unsigned, DW_OP_LLVM_convert, 32, DW_ATE_unsigned, DW_OP_stack_value)), !dbg !2170
  %302 = fsub float %292, %290, !dbg !2199
  %303 = fpext float %302 to double, !dbg !2200
  %304 = shl i64 %301, 32, !dbg !2201
  %305 = ashr exact i64 %304, 32, !dbg !2201
  %306 = getelementptr inbounds i32, i32* %214, i64 %305, !dbg !2201
  %307 = load i32, i32* %306, align 4, !dbg !2201, !tbaa !1801
  %308 = sext i32 %307 to i64, !dbg !2202
  %309 = getelementptr inbounds double, double* %199, i64 %308, !dbg !2202
  %310 = load double, double* %309, align 8, !dbg !2203, !tbaa !2020
  %311 = fadd double %310, %303, !dbg !2203
  store double %311, double* %309, align 8, !dbg !2203, !tbaa !2020
  br label %312

312:                                              ; preds = %299, %294
  %313 = phi double [ %298, %294 ], [ %225, %299 ], !dbg !2052
  call void @llvm.dbg.value(metadata double %313, metadata !311, metadata !DIExpression()), !dbg !2052
  %314 = add i64 %224, 1, !dbg !2204
  call void @llvm.dbg.value(metadata i64 %314, metadata !306, metadata !DIExpression()), !dbg !2052
  %315 = icmp sgt i64 %18, %314, !dbg !2205
  br i1 %315, label %223, label %316, !dbg !2163, !llvm.loop !2206

316:                                              ; preds = %312
  call void @llvm.dbg.value(metadata double %313, metadata !311, metadata !DIExpression()), !dbg !2052
  call void @llvm.dbg.value(metadata double %313, metadata !311, metadata !DIExpression()), !dbg !2052
  call void @llvm.dbg.value(metadata double %313, metadata !311, metadata !DIExpression()), !dbg !2052
  call void @llvm.dbg.value(metadata double %313, metadata !311, metadata !DIExpression()), !dbg !2052
  call void @llvm.dbg.value(metadata double %313, metadata !311, metadata !DIExpression()), !dbg !2052
  %317 = tail call i32 @pthread_barrier_wait(%union.pthread_barrier_t* %5) #15, !dbg !2164
  call void @llvm.dbg.value(metadata i64 %14, metadata !335, metadata !DIExpression(DW_OP_LLVM_convert, 64, DW_ATE_unsigned, DW_OP_LLVM_convert, 32, DW_ATE_unsigned, DW_OP_stack_value)), !dbg !2165
  call void @llvm.dbg.value(metadata i32 0, metadata !307, metadata !DIExpression()), !dbg !2052
  call void @llvm.dbg.value(metadata double %313, metadata !311, metadata !DIExpression()), !dbg !2052
  br i1 %42, label %321, label %318, !dbg !2166

318:                                              ; preds = %204, %316
  %319 = phi double [ 0.000000e+00, %204 ], [ %313, %316 ]
  %320 = load double*, double** @_ZZ5pgainlP6PointsdPliP17pthread_barrier_tE8work_mem, align 8, !dbg !2208, !tbaa !1768
  br label %335, !dbg !2166

321:                                              ; preds = %316
  %322 = load i8*, i8** @_ZL9is_center, align 8, !dbg !2209, !tbaa !1768
  %323 = load i32, i32* @_ZL5nproc, align 4, !dbg !2210
  %324 = icmp sgt i32 %323, 0, !dbg !2210
  %325 = load double*, double** @_ZZ5pgainlP6PointsdPliP17pthread_barrier_tE8work_mem, align 8, !dbg !2212
  %326 = load i32*, i32** @_ZL12center_table, align 8, !dbg !2212
  %327 = shl i64 %14, 32, !dbg !2166
  %328 = ashr exact i64 %327, 32, !dbg !2166
  %329 = zext i32 %323 to i64, !dbg !2210
  %330 = add nsw i64 %329, -1, !dbg !2166
  %331 = and i64 %329, 3, !dbg !2214
  %332 = icmp ult i64 %330, 3, !dbg !2214
  %333 = sub nsw i64 %329, %331, !dbg !2214
  %334 = icmp eq i64 %331, 0, !dbg !2214
  br label %347, !dbg !2166

335:                                              ; preds = %413, %318
  %336 = phi double* [ %320, %318 ], [ %325, %413 ], !dbg !2208
  %337 = phi double [ %319, %318 ], [ %414, %413 ], !dbg !2052
  %338 = phi i32 [ 0, %318 ], [ %415, %413 ], !dbg !2052
  call void @llvm.dbg.value(metadata double %337, metadata !311, metadata !DIExpression()), !dbg !2052
  call void @llvm.dbg.value(metadata i32 %338, metadata !307, metadata !DIExpression()), !dbg !2052
  %339 = sitofp i32 %338 to double, !dbg !2215
  %340 = add nsw i32 %73, %30, !dbg !2216
  %341 = sext i32 %340 to i64, !dbg !2208
  %342 = getelementptr inbounds double, double* %336, i64 %341, !dbg !2208
  store double %339, double* %342, align 8, !dbg !2217, !tbaa !2020
  %343 = add nsw i32 %340, 1, !dbg !2218
  %344 = sext i32 %343 to i64, !dbg !2219
  %345 = getelementptr inbounds double, double* %336, i64 %344, !dbg !2219
  store double %337, double* %345, align 8, !dbg !2220, !tbaa !2020
  %346 = tail call i32 @pthread_barrier_wait(%union.pthread_barrier_t* %5) #15, !dbg !2221
  br i1 %31, label %418, label %480, !dbg !2222

347:                                              ; preds = %321, %413
  %348 = phi i64 [ %328, %321 ], [ %416, %413 ]
  %349 = phi i32 [ 0, %321 ], [ %415, %413 ]
  %350 = phi double [ %313, %321 ], [ %414, %413 ]
  call void @llvm.dbg.value(metadata i64 %348, metadata !335, metadata !DIExpression()), !dbg !2165
  call void @llvm.dbg.value(metadata i32 %349, metadata !307, metadata !DIExpression()), !dbg !2052
  call void @llvm.dbg.value(metadata double %350, metadata !311, metadata !DIExpression()), !dbg !2052
  %351 = getelementptr inbounds i8, i8* %322, i64 %348, !dbg !2223
  %352 = load i8, i8* %351, align 1, !dbg !2223, !tbaa !2099, !range !2101
  %353 = icmp eq i8 %352, 0, !dbg !2223
  br i1 %353, label %413, label %354, !dbg !2224

354:                                              ; preds = %347
  call void @llvm.dbg.value(metadata i32 0, metadata !342, metadata !DIExpression()), !dbg !2214
  call void @llvm.dbg.value(metadata double %2, metadata !337, metadata !DIExpression()), !dbg !2225
  %355 = getelementptr inbounds i32, i32* %326, i64 %348, !dbg !2225
  %356 = load i32, i32* %355, align 4, !dbg !2225, !tbaa !1801
  %357 = sext i32 %356 to i64, !dbg !2225
  br i1 %324, label %358, label %375, !dbg !2226

358:                                              ; preds = %354
  br i1 %332, label %359, label %383, !dbg !2226

359:                                              ; preds = %383, %358
  %360 = phi double [ undef, %358 ], [ %409, %383 ]
  %361 = phi i64 [ 0, %358 ], [ %410, %383 ]
  %362 = phi double [ %2, %358 ], [ %409, %383 ]
  br i1 %334, label %375, label %363, !dbg !2226

363:                                              ; preds = %359, %363
  %364 = phi i64 [ %372, %363 ], [ %361, %359 ]
  %365 = phi double [ %371, %363 ], [ %362, %359 ]
  %366 = phi i64 [ %373, %363 ], [ %331, %359 ]
  call void @llvm.dbg.value(metadata i64 %364, metadata !342, metadata !DIExpression()), !dbg !2214
  call void @llvm.dbg.value(metadata double %365, metadata !337, metadata !DIExpression()), !dbg !2225
  %367 = mul nsw i64 %364, %172, !dbg !2227
  %368 = add nsw i64 %367, %357, !dbg !2228
  %369 = getelementptr inbounds double, double* %325, i64 %368, !dbg !2229
  %370 = load double, double* %369, align 8, !dbg !2229, !tbaa !2020
  %371 = fadd double %365, %370, !dbg !2230
  call void @llvm.dbg.value(metadata double %371, metadata !337, metadata !DIExpression()), !dbg !2225
  %372 = add nuw nsw i64 %364, 1, !dbg !2231
  call void @llvm.dbg.value(metadata i64 %372, metadata !342, metadata !DIExpression()), !dbg !2214
  %373 = add i64 %366, -1, !dbg !2226
  %374 = icmp eq i64 %373, 0, !dbg !2226
  br i1 %374, label %375, label %363, !dbg !2226, !llvm.loop !2232

375:                                              ; preds = %359, %363, %354
  %376 = phi double [ %2, %354 ], [ %360, %359 ], [ %371, %363 ], !dbg !2225
  call void @llvm.dbg.value(metadata double %376, metadata !337, metadata !DIExpression()), !dbg !2225
  %377 = getelementptr inbounds double, double* %203, i64 %357, !dbg !2233
  store double %376, double* %377, align 8, !dbg !2234, !tbaa !2020
  %378 = fcmp ogt double %376, 0.000000e+00, !dbg !2235
  %379 = fsub double %350, %376, !dbg !2237
  %380 = select i1 %378, double %379, double %350, !dbg !2237
  %381 = zext i1 %378 to i32, !dbg !2237
  %382 = add nsw i32 %349, %381, !dbg !2237
  br label %413, !dbg !2237

383:                                              ; preds = %358, %383
  %384 = phi i64 [ %410, %383 ], [ 0, %358 ]
  %385 = phi double [ %409, %383 ], [ %2, %358 ]
  %386 = phi i64 [ %411, %383 ], [ %333, %358 ]
  call void @llvm.dbg.value(metadata i64 %384, metadata !342, metadata !DIExpression()), !dbg !2214
  call void @llvm.dbg.value(metadata double %385, metadata !337, metadata !DIExpression()), !dbg !2225
  %387 = mul nsw i64 %384, %172, !dbg !2227
  %388 = add nsw i64 %387, %357, !dbg !2228
  %389 = getelementptr inbounds double, double* %325, i64 %388, !dbg !2229
  %390 = load double, double* %389, align 8, !dbg !2229, !tbaa !2020
  %391 = fadd double %385, %390, !dbg !2230
  call void @llvm.dbg.value(metadata double %391, metadata !337, metadata !DIExpression()), !dbg !2225
  %392 = or i64 %384, 1, !dbg !2231
  call void @llvm.dbg.value(metadata i64 %392, metadata !342, metadata !DIExpression()), !dbg !2214
  %393 = mul nsw i64 %392, %172, !dbg !2227
  %394 = add nsw i64 %393, %357, !dbg !2228
  %395 = getelementptr inbounds double, double* %325, i64 %394, !dbg !2229
  %396 = load double, double* %395, align 8, !dbg !2229, !tbaa !2020
  %397 = fadd double %391, %396, !dbg !2230
  call void @llvm.dbg.value(metadata double %397, metadata !337, metadata !DIExpression()), !dbg !2225
  %398 = or i64 %384, 2, !dbg !2231
  call void @llvm.dbg.value(metadata i64 %398, metadata !342, metadata !DIExpression()), !dbg !2214
  %399 = mul nsw i64 %398, %172, !dbg !2227
  %400 = add nsw i64 %399, %357, !dbg !2228
  %401 = getelementptr inbounds double, double* %325, i64 %400, !dbg !2229
  %402 = load double, double* %401, align 8, !dbg !2229, !tbaa !2020
  %403 = fadd double %397, %402, !dbg !2230
  call void @llvm.dbg.value(metadata double %403, metadata !337, metadata !DIExpression()), !dbg !2225
  %404 = or i64 %384, 3, !dbg !2231
  call void @llvm.dbg.value(metadata i64 %404, metadata !342, metadata !DIExpression()), !dbg !2214
  %405 = mul nsw i64 %404, %172, !dbg !2227
  %406 = add nsw i64 %405, %357, !dbg !2228
  %407 = getelementptr inbounds double, double* %325, i64 %406, !dbg !2229
  %408 = load double, double* %407, align 8, !dbg !2229, !tbaa !2020
  %409 = fadd double %403, %408, !dbg !2230
  call void @llvm.dbg.value(metadata double %409, metadata !337, metadata !DIExpression()), !dbg !2225
  %410 = add nuw nsw i64 %384, 4, !dbg !2231
  call void @llvm.dbg.value(metadata i64 %410, metadata !342, metadata !DIExpression()), !dbg !2214
  %411 = add i64 %386, -4, !dbg !2226
  %412 = icmp eq i64 %411, 0, !dbg !2226
  br i1 %412, label %359, label %383, !dbg !2226, !llvm.loop !2238

413:                                              ; preds = %375, %347
  %414 = phi double [ %350, %347 ], [ %380, %375 ], !dbg !2052
  %415 = phi i32 [ %349, %347 ], [ %382, %375 ], !dbg !2052
  call void @llvm.dbg.value(metadata i32 %415, metadata !307, metadata !DIExpression()), !dbg !2052
  call void @llvm.dbg.value(metadata double %414, metadata !311, metadata !DIExpression()), !dbg !2052
  %416 = add i64 %348, 1, !dbg !2240
  call void @llvm.dbg.value(metadata i64 %416, metadata !335, metadata !DIExpression()), !dbg !2165
  %417 = icmp sgt i64 %18, %416, !dbg !2241
  br i1 %417, label %347, label %335, !dbg !2166, !llvm.loop !2242

418:                                              ; preds = %335
  store double %2, double* @_ZZ5pgainlP6PointsdPliP17pthread_barrier_tE20gl_cost_of_opening_x, align 8, !dbg !2244, !tbaa !2020
  call void @llvm.dbg.value(metadata i32 0, metadata !344, metadata !DIExpression()), !dbg !2245
  %419 = load i32, i32* @_ZL5nproc, align 4, !dbg !2246, !tbaa !1801
  %420 = icmp sgt i32 %419, 0, !dbg !2248
  br i1 %420, label %421, label %480, !dbg !2249

421:                                              ; preds = %418
  %422 = load double*, double** @_ZZ5pgainlP6PointsdPliP17pthread_barrier_tE8work_mem, align 8, !dbg !2250, !tbaa !1768
  %423 = load i32, i32* @_ZZ5pgainlP6PointsdPliP17pthread_barrier_tE29gl_number_of_centers_to_close, align 4, !dbg !2252, !tbaa !1801
  %424 = sext i32 %30 to i64, !dbg !2249
  %425 = zext i32 %419 to i64, !dbg !2249
  %426 = and i64 %425, 1, !dbg !2249
  %427 = icmp eq i32 %419, 1, !dbg !2249
  br i1 %427, label %459, label %428, !dbg !2249

428:                                              ; preds = %421
  %429 = sub nsw i64 %425, %426, !dbg !2249
  br label %430, !dbg !2249

430:                                              ; preds = %430, %428
  %431 = phi i64 [ 0, %428 ], [ %456, %430 ], !dbg !2245
  %432 = phi double [ %2, %428 ], [ %455, %430 ], !dbg !2245
  %433 = phi i32 [ %423, %428 ], [ %451, %430 ], !dbg !2245
  %434 = phi i64 [ %429, %428 ], [ %457, %430 ]
  call void @llvm.dbg.value(metadata i64 %431, metadata !344, metadata !DIExpression()), !dbg !2245
  %435 = mul nsw i64 %431, %172, !dbg !2253
  %436 = add nsw i64 %435, %424, !dbg !2254
  %437 = getelementptr inbounds double, double* %422, i64 %436, !dbg !2255
  %438 = load double, double* %437, align 8, !dbg !2255, !tbaa !2020
  %439 = fptosi double %438 to i32, !dbg !2255
  %440 = add nsw i32 %433, %439, !dbg !2252
  %441 = add nsw i64 %436, 1, !dbg !2256
  %442 = getelementptr inbounds double, double* %422, i64 %441, !dbg !2257
  %443 = load double, double* %442, align 8, !dbg !2257, !tbaa !2020
  %444 = fadd double %443, %432, !dbg !2258
  %445 = or i64 %431, 1, !dbg !2259
  call void @llvm.dbg.value(metadata i64 %445, metadata !344, metadata !DIExpression()), !dbg !2245
  %446 = mul nsw i64 %445, %172, !dbg !2253
  %447 = add nsw i64 %446, %424, !dbg !2254
  %448 = getelementptr inbounds double, double* %422, i64 %447, !dbg !2255
  %449 = load double, double* %448, align 8, !dbg !2255, !tbaa !2020
  %450 = fptosi double %449 to i32, !dbg !2255
  %451 = add nsw i32 %440, %450, !dbg !2252
  %452 = add nsw i64 %447, 1, !dbg !2256
  %453 = getelementptr inbounds double, double* %422, i64 %452, !dbg !2257
  %454 = load double, double* %453, align 8, !dbg !2257, !tbaa !2020
  %455 = fadd double %454, %444, !dbg !2258
  %456 = add nuw nsw i64 %431, 2, !dbg !2259
  call void @llvm.dbg.value(metadata i64 %456, metadata !344, metadata !DIExpression()), !dbg !2245
  %457 = add i64 %434, -2, !dbg !2249
  %458 = icmp eq i64 %457, 0, !dbg !2249
  br i1 %458, label %459, label %430, !dbg !2249, !llvm.loop !2260

459:                                              ; preds = %430, %421
  %460 = phi i32 [ undef, %421 ], [ %451, %430 ]
  %461 = phi double [ undef, %421 ], [ %455, %430 ]
  %462 = phi i64 [ 0, %421 ], [ %456, %430 ]
  %463 = phi double [ %2, %421 ], [ %455, %430 ]
  %464 = phi i32 [ %423, %421 ], [ %451, %430 ]
  %465 = icmp eq i64 %426, 0, !dbg !2249
  br i1 %465, label %477, label %466, !dbg !2249

466:                                              ; preds = %459
  call void @llvm.dbg.value(metadata i64 %462, metadata !344, metadata !DIExpression()), !dbg !2245
  %467 = mul nsw i64 %462, %172, !dbg !2253
  %468 = add nsw i64 %467, %424, !dbg !2254
  call void @llvm.dbg.value(metadata i64 %462, metadata !344, metadata !DIExpression(DW_OP_plus_uconst, 1, DW_OP_stack_value)), !dbg !2245
  %469 = add nsw i64 %468, 1, !dbg !2256
  %470 = getelementptr inbounds double, double* %422, i64 %469, !dbg !2257
  %471 = load double, double* %470, align 8, !dbg !2257, !tbaa !2020
  %472 = fadd double %471, %463, !dbg !2258
  %473 = getelementptr inbounds double, double* %422, i64 %468, !dbg !2255
  %474 = load double, double* %473, align 8, !dbg !2255, !tbaa !2020
  %475 = fptosi double %474 to i32, !dbg !2255
  %476 = add nsw i32 %464, %475, !dbg !2252
  br label %477, !dbg !2252

477:                                              ; preds = %459, %466
  %478 = phi i32 [ %460, %459 ], [ %476, %466 ], !dbg !2252
  %479 = phi double [ %461, %459 ], [ %472, %466 ], !dbg !2258
  store i32 %478, i32* @_ZZ5pgainlP6PointsdPliP17pthread_barrier_tE29gl_number_of_centers_to_close, align 4, !dbg !2252, !tbaa !1801
  store double %479, double* @_ZZ5pgainlP6PointsdPliP17pthread_barrier_tE20gl_cost_of_opening_x, align 8, !dbg !2258, !tbaa !2020
  br label %480, !dbg !2249

480:                                              ; preds = %418, %477, %335
  %481 = tail call i32 @pthread_barrier_wait(%union.pthread_barrier_t* %5) #15, !dbg !2262
  %482 = load double, double* @_ZZ5pgainlP6PointsdPliP17pthread_barrier_tE20gl_cost_of_opening_x, align 8, !dbg !2263, !tbaa !2020
  %483 = fcmp olt double %482, 0.000000e+00, !dbg !2264
  br i1 %483, label %484, label %650, !dbg !2265

484:                                              ; preds = %480
  call void @llvm.dbg.value(metadata i64 %14, metadata !348, metadata !DIExpression(DW_OP_LLVM_convert, 64, DW_ATE_unsigned, DW_OP_LLVM_convert, 32, DW_ATE_unsigned, DW_OP_stack_value)), !dbg !2266
  br i1 %42, label %485, label %618, !dbg !2267

485:                                              ; preds = %484
  %486 = getelementptr inbounds %struct.Points, %struct.Points* %1, i64 0, i32 2, !dbg !2268
  %487 = load i8*, i8** @_ZL17switch_membership, align 8, !dbg !2269, !tbaa !1768
  %488 = load i32*, i32** @_ZL12center_table, align 8, !dbg !2268
  %489 = getelementptr inbounds %struct.Points, %struct.Points* %1, i64 0, i32 1, !dbg !2271
  %490 = shl i64 %14, 32, !dbg !2267
  %491 = ashr exact i64 %490, 32, !dbg !2267
  %492 = load %struct.Point*, %struct.Point** %486, align 8, !dbg !2268, !tbaa !1764
  %493 = getelementptr inbounds %struct.Point, %struct.Point* %492, i64 %0, i32 1, !dbg !2271
  br label %524, !dbg !2267

494:                                              ; preds = %615
  call void @llvm.dbg.value(metadata i64 %14, metadata !355, metadata !DIExpression(DW_OP_LLVM_convert, 64, DW_ATE_unsigned, DW_OP_LLVM_convert, 32, DW_ATE_unsigned, DW_OP_stack_value)), !dbg !2273
  br i1 %42, label %495, label %618, !dbg !2274

495:                                              ; preds = %494
  %496 = load i8*, i8** @_ZL9is_center, align 8, !dbg !2275, !tbaa !1768
  %497 = load i32*, i32** @_ZL12center_table, align 8, !dbg !2275
  %498 = shl i64 %14, 32, !dbg !2274
  %499 = ashr exact i64 %498, 32, !dbg !2274
  %500 = trunc i64 %12 to i32, !dbg !2274
  %501 = mul i32 %500, %4, !dbg !2274
  %502 = sext i32 %501 to i64, !dbg !2274
  %503 = sub i64 %18, %502, !dbg !2274
  %504 = and i64 %503, 1, !dbg !2274
  %505 = icmp eq i64 %504, 0, !dbg !2274
  br i1 %505, label %520, label %506, !dbg !2274

506:                                              ; preds = %495
  call void @llvm.dbg.value(metadata i64 %499, metadata !355, metadata !DIExpression()), !dbg !2273
  %507 = getelementptr inbounds i8, i8* %496, i64 %499, !dbg !2279
  %508 = load i8, i8* %507, align 1, !dbg !2279, !tbaa !2099, !range !2101
  %509 = icmp eq i8 %508, 0, !dbg !2279
  br i1 %509, label %518, label %510, !dbg !2280

510:                                              ; preds = %506
  %511 = getelementptr inbounds i32, i32* %497, i64 %499, !dbg !2281
  %512 = load i32, i32* %511, align 4, !dbg !2281, !tbaa !1801
  %513 = sext i32 %512 to i64, !dbg !2282
  %514 = getelementptr inbounds double, double* %203, i64 %513, !dbg !2282
  %515 = load double, double* %514, align 8, !dbg !2282, !tbaa !2020
  %516 = fcmp ogt double %515, 0.000000e+00, !dbg !2283
  br i1 %516, label %517, label %518, !dbg !2284

517:                                              ; preds = %510
  store i8 0, i8* %507, align 1, !dbg !2285, !tbaa !2099
  br label %518, !dbg !2287

518:                                              ; preds = %517, %510, %506
  %519 = add nsw i64 %499, 1, !dbg !2288
  call void @llvm.dbg.value(metadata i64 %519, metadata !355, metadata !DIExpression()), !dbg !2273
  br label %520, !dbg !2274

520:                                              ; preds = %495, %518
  %521 = phi i64 [ %499, %495 ], [ %519, %518 ]
  %522 = add nsw i64 %502, 1, !dbg !2274
  %523 = icmp eq i64 %18, %522, !dbg !2274
  br i1 %523, label %618, label %622, !dbg !2274

524:                                              ; preds = %485, %615
  %525 = phi i64 [ %491, %485 ], [ %616, %615 ]
  call void @llvm.dbg.value(metadata i64 %525, metadata !348, metadata !DIExpression()), !dbg !2266
  call void @llvm.dbg.value(metadata i1 undef, metadata !352, metadata !DIExpression()), !dbg !2268
  %526 = getelementptr inbounds i8, i8* %487, i64 %525, !dbg !2289
  %527 = load i8, i8* %526, align 1, !dbg !2289, !tbaa !2099, !range !2101
  %528 = icmp eq i8 %527, 0, !dbg !2289
  br i1 %528, label %529, label %538, !dbg !2290

529:                                              ; preds = %524
  %530 = getelementptr inbounds %struct.Point, %struct.Point* %492, i64 %525, i32 2, !dbg !2291
  %531 = load i64, i64* %530, align 8, !dbg !2291, !tbaa !1885
  %532 = getelementptr inbounds i32, i32* %488, i64 %531, !dbg !2292
  %533 = load i32, i32* %532, align 4, !dbg !2292, !tbaa !1801
  %534 = sext i32 %533 to i64, !dbg !2293
  %535 = getelementptr inbounds double, double* %203, i64 %534, !dbg !2293
  %536 = load double, double* %535, align 8, !dbg !2293, !tbaa !2020
  %537 = fcmp ogt double %536, 0.000000e+00, !dbg !2294
  call void @llvm.dbg.value(metadata i1 %537, metadata !352, metadata !DIExpression()), !dbg !2268
  br i1 %537, label %538, label %615, !dbg !2295

538:                                              ; preds = %524, %529
  %539 = getelementptr inbounds %struct.Point, %struct.Point* %492, i64 %525, i32 0, !dbg !2296
  %540 = load float, float* %539, align 8, !dbg !2296, !tbaa !1878
  call void @llvm.dbg.value(metadata i64 undef, metadata !1813, metadata !DIExpression(DW_OP_LLVM_fragment, 0, 64)), !dbg !2297
  %541 = getelementptr inbounds %struct.Point, %struct.Point* %492, i64 %525, i32 1, !dbg !2299
  %542 = load float*, float** %541, align 8, !dbg !2299, !tbaa.struct !1767
  call void @llvm.dbg.value(metadata float* %542, metadata !1813, metadata !DIExpression(DW_OP_LLVM_fragment, 64, 64)), !dbg !2297
  call void @llvm.dbg.value(metadata i64 undef, metadata !1814, metadata !DIExpression(DW_OP_LLVM_fragment, 0, 64)), !dbg !2297
  %543 = load float*, float** %493, align 8, !dbg !2300, !tbaa.struct !1767
  call void @llvm.dbg.value(metadata float* %543, metadata !1814, metadata !DIExpression(DW_OP_LLVM_fragment, 64, 64)), !dbg !2297
  %544 = load i32, i32* %489, align 8, !dbg !2301, !tbaa !1856
  call void @llvm.dbg.value(metadata i32 %544, metadata !1815, metadata !DIExpression()), !dbg !2297
  call void @llvm.dbg.value(metadata float 0.000000e+00, metadata !1817, metadata !DIExpression()), !dbg !2297
  call void @llvm.dbg.value(metadata i32 0, metadata !1816, metadata !DIExpression()), !dbg !2297
  %545 = icmp sgt i32 %544, 0, !dbg !2302
  br i1 %545, label %546, label %610, !dbg !2303

546:                                              ; preds = %538
  %547 = zext i32 %544 to i64, !dbg !2302
  %548 = add nsw i64 %547, -1, !dbg !2303
  %549 = and i64 %547, 3, !dbg !2303
  %550 = icmp ult i64 %548, 3, !dbg !2303
  br i1 %550, label %591, label %551, !dbg !2303

551:                                              ; preds = %546
  %552 = sub nsw i64 %547, %549, !dbg !2303
  br label %553, !dbg !2303

553:                                              ; preds = %553, %551
  %554 = phi i64 [ 0, %551 ], [ %588, %553 ]
  %555 = phi float [ 0.000000e+00, %551 ], [ %587, %553 ]
  %556 = phi i64 [ %552, %551 ], [ %589, %553 ]
  call void @llvm.dbg.value(metadata float %555, metadata !1817, metadata !DIExpression()), !dbg !2297
  call void @llvm.dbg.value(metadata i64 %554, metadata !1816, metadata !DIExpression()), !dbg !2297
  %557 = getelementptr inbounds float, float* %542, i64 %554, !dbg !2304
  %558 = load float, float* %557, align 4, !dbg !2304, !tbaa !1725
  %559 = getelementptr inbounds float, float* %543, i64 %554, !dbg !2305
  %560 = load float, float* %559, align 4, !dbg !2305, !tbaa !1725
  %561 = fsub float %558, %560, !dbg !2306
  %562 = fmul float %561, %561, !dbg !2307
  %563 = fadd float %555, %562, !dbg !2308
  call void @llvm.dbg.value(metadata float %563, metadata !1817, metadata !DIExpression()), !dbg !2297
  %564 = or i64 %554, 1, !dbg !2309
  call void @llvm.dbg.value(metadata i64 %564, metadata !1816, metadata !DIExpression()), !dbg !2297
  %565 = getelementptr inbounds float, float* %542, i64 %564, !dbg !2304
  %566 = load float, float* %565, align 4, !dbg !2304, !tbaa !1725
  %567 = getelementptr inbounds float, float* %543, i64 %564, !dbg !2305
  %568 = load float, float* %567, align 4, !dbg !2305, !tbaa !1725
  %569 = fsub float %566, %568, !dbg !2306
  %570 = fmul float %569, %569, !dbg !2307
  %571 = fadd float %563, %570, !dbg !2308
  call void @llvm.dbg.value(metadata float %571, metadata !1817, metadata !DIExpression()), !dbg !2297
  %572 = or i64 %554, 2, !dbg !2309
  call void @llvm.dbg.value(metadata i64 %572, metadata !1816, metadata !DIExpression()), !dbg !2297
  %573 = getelementptr inbounds float, float* %542, i64 %572, !dbg !2304
  %574 = load float, float* %573, align 4, !dbg !2304, !tbaa !1725
  %575 = getelementptr inbounds float, float* %543, i64 %572, !dbg !2305
  %576 = load float, float* %575, align 4, !dbg !2305, !tbaa !1725
  %577 = fsub float %574, %576, !dbg !2306
  %578 = fmul float %577, %577, !dbg !2307
  %579 = fadd float %571, %578, !dbg !2308
  call void @llvm.dbg.value(metadata float %579, metadata !1817, metadata !DIExpression()), !dbg !2297
  %580 = or i64 %554, 3, !dbg !2309
  call void @llvm.dbg.value(metadata i64 %580, metadata !1816, metadata !DIExpression()), !dbg !2297
  %581 = getelementptr inbounds float, float* %542, i64 %580, !dbg !2304
  %582 = load float, float* %581, align 4, !dbg !2304, !tbaa !1725
  %583 = getelementptr inbounds float, float* %543, i64 %580, !dbg !2305
  %584 = load float, float* %583, align 4, !dbg !2305, !tbaa !1725
  %585 = fsub float %582, %584, !dbg !2306
  %586 = fmul float %585, %585, !dbg !2307
  %587 = fadd float %579, %586, !dbg !2308
  call void @llvm.dbg.value(metadata float %587, metadata !1817, metadata !DIExpression()), !dbg !2297
  %588 = add nuw nsw i64 %554, 4, !dbg !2309
  call void @llvm.dbg.value(metadata i64 %588, metadata !1816, metadata !DIExpression()), !dbg !2297
  %589 = add i64 %556, -4, !dbg !2303
  %590 = icmp eq i64 %589, 0, !dbg !2303
  br i1 %590, label %591, label %553, !dbg !2303, !llvm.loop !2310

591:                                              ; preds = %553, %546
  %592 = phi float [ undef, %546 ], [ %587, %553 ]
  %593 = phi i64 [ 0, %546 ], [ %588, %553 ]
  %594 = phi float [ 0.000000e+00, %546 ], [ %587, %553 ]
  %595 = icmp eq i64 %549, 0, !dbg !2303
  br i1 %595, label %610, label %596, !dbg !2303

596:                                              ; preds = %591, %596
  %597 = phi i64 [ %607, %596 ], [ %593, %591 ]
  %598 = phi float [ %606, %596 ], [ %594, %591 ]
  %599 = phi i64 [ %608, %596 ], [ %549, %591 ]
  call void @llvm.dbg.value(metadata float %598, metadata !1817, metadata !DIExpression()), !dbg !2297
  call void @llvm.dbg.value(metadata i64 %597, metadata !1816, metadata !DIExpression()), !dbg !2297
  %600 = getelementptr inbounds float, float* %542, i64 %597, !dbg !2304
  %601 = load float, float* %600, align 4, !dbg !2304, !tbaa !1725
  %602 = getelementptr inbounds float, float* %543, i64 %597, !dbg !2305
  %603 = load float, float* %602, align 4, !dbg !2305, !tbaa !1725
  %604 = fsub float %601, %603, !dbg !2306
  %605 = fmul float %604, %604, !dbg !2307
  %606 = fadd float %598, %605, !dbg !2308
  call void @llvm.dbg.value(metadata float %606, metadata !1817, metadata !DIExpression()), !dbg !2297
  %607 = add nuw nsw i64 %597, 1, !dbg !2309
  call void @llvm.dbg.value(metadata i64 %607, metadata !1816, metadata !DIExpression()), !dbg !2297
  %608 = add i64 %599, -1, !dbg !2303
  %609 = icmp eq i64 %608, 0, !dbg !2303
  br i1 %609, label %610, label %596, !dbg !2303, !llvm.loop !2312

610:                                              ; preds = %591, %596, %538
  %611 = phi float [ 0.000000e+00, %538 ], [ %592, %591 ], [ %606, %596 ], !dbg !2297
  call void @llvm.dbg.value(metadata float %611, metadata !1817, metadata !DIExpression()), !dbg !2297
  %612 = fmul float %540, %611, !dbg !2313
  %613 = getelementptr inbounds %struct.Point, %struct.Point* %492, i64 %525, i32 3, !dbg !2314
  store float %612, float* %613, align 8, !dbg !2315, !tbaa !1882
  %614 = getelementptr inbounds %struct.Point, %struct.Point* %492, i64 %525, i32 2, !dbg !2316
  store i64 %0, i64* %614, align 8, !dbg !2317, !tbaa !1885
  br label %615, !dbg !2318

615:                                              ; preds = %610, %529
  %616 = add i64 %525, 1, !dbg !2319
  call void @llvm.dbg.value(metadata i64 %616, metadata !348, metadata !DIExpression()), !dbg !2266
  %617 = icmp sgt i64 %18, %616, !dbg !2320
  br i1 %617, label %524, label %494, !dbg !2267, !llvm.loop !2321

618:                                              ; preds = %520, %670, %484, %494
  %619 = icmp sle i64 %14, %0, !dbg !2323
  %620 = icmp sgt i64 %18, %0, !dbg !2325
  %621 = and i1 %619, %620, !dbg !2326
  br i1 %621, label %640, label %643, !dbg !2326

622:                                              ; preds = %520, %670
  %623 = phi i64 [ %671, %670 ], [ %521, %520 ]
  call void @llvm.dbg.value(metadata i64 %623, metadata !355, metadata !DIExpression()), !dbg !2273
  %624 = getelementptr inbounds i8, i8* %496, i64 %623, !dbg !2279
  %625 = load i8, i8* %624, align 1, !dbg !2279, !tbaa !2099, !range !2101
  %626 = icmp eq i8 %625, 0, !dbg !2279
  br i1 %626, label %635, label %627, !dbg !2280

627:                                              ; preds = %622
  %628 = getelementptr inbounds i32, i32* %497, i64 %623, !dbg !2281
  %629 = load i32, i32* %628, align 4, !dbg !2281, !tbaa !1801
  %630 = sext i32 %629 to i64, !dbg !2282
  %631 = getelementptr inbounds double, double* %203, i64 %630, !dbg !2282
  %632 = load double, double* %631, align 8, !dbg !2282, !tbaa !2020
  %633 = fcmp ogt double %632, 0.000000e+00, !dbg !2283
  br i1 %633, label %634, label %635, !dbg !2284

634:                                              ; preds = %627
  store i8 0, i8* %624, align 1, !dbg !2285, !tbaa !2099
  br label %635, !dbg !2287

635:                                              ; preds = %622, %627, %634
  %636 = add nsw i64 %623, 1, !dbg !2288
  call void @llvm.dbg.value(metadata i64 %636, metadata !355, metadata !DIExpression()), !dbg !2273
  %637 = getelementptr inbounds i8, i8* %496, i64 %636, !dbg !2279
  %638 = load i8, i8* %637, align 1, !dbg !2279, !tbaa !2099, !range !2101
  %639 = icmp eq i8 %638, 0, !dbg !2279
  br i1 %639, label %670, label %662, !dbg !2280

640:                                              ; preds = %618
  %641 = load i8*, i8** @_ZL9is_center, align 8, !dbg !2327, !tbaa !1768
  %642 = getelementptr inbounds i8, i8* %641, i64 %0, !dbg !2327
  store i8 1, i8* %642, align 1, !dbg !2329, !tbaa !2099
  br label %643, !dbg !2330

643:                                              ; preds = %618, %640
  br i1 %31, label %644, label %657, !dbg !2331

644:                                              ; preds = %643
  %645 = load i64, i64* %3, align 8, !dbg !2332, !tbaa !1769
  %646 = add nsw i64 %645, 1, !dbg !2335
  %647 = load i32, i32* @_ZZ5pgainlP6PointsdPliP17pthread_barrier_tE29gl_number_of_centers_to_close, align 4, !dbg !2336, !tbaa !1801
  %648 = sext i32 %647 to i64, !dbg !2336
  %649 = sub i64 %646, %648, !dbg !2337
  store i64 %649, i64* %3, align 8, !dbg !2338, !tbaa !1769
  br label %652, !dbg !2339

650:                                              ; preds = %480
  br i1 %31, label %651, label %655, !dbg !2340

651:                                              ; preds = %650
  store double 0.000000e+00, double* @_ZZ5pgainlP6PointsdPliP17pthread_barrier_tE20gl_cost_of_opening_x, align 8, !dbg !2342, !tbaa !2020
  br label %652, !dbg !2344

652:                                              ; preds = %644, %651
  %653 = tail call i32 @pthread_barrier_wait(%union.pthread_barrier_t* %5) #15, !dbg !2345
  %654 = load i8*, i8** bitcast (double** @_ZZ5pgainlP6PointsdPliP17pthread_barrier_tE8work_mem to i8**), align 8, !dbg !2346, !tbaa !1768
  tail call void @free(i8* %654) #15, !dbg !2349
  br label %659, !dbg !2350

655:                                              ; preds = %650
  %656 = tail call i32 @pthread_barrier_wait(%union.pthread_barrier_t* %5) #15, !dbg !2345
  br label %659, !dbg !2351

657:                                              ; preds = %643
  %658 = tail call i32 @pthread_barrier_wait(%union.pthread_barrier_t* %5) #15, !dbg !2345
  br label %659, !dbg !2351

659:                                              ; preds = %657, %655, %652
  %660 = load double, double* @_ZZ5pgainlP6PointsdPliP17pthread_barrier_tE20gl_cost_of_opening_x, align 8, !dbg !2352, !tbaa !2020
  %661 = fneg double %660, !dbg !2353
  ret double %661, !dbg !2354

662:                                              ; preds = %635
  %663 = getelementptr inbounds i32, i32* %497, i64 %636, !dbg !2281
  %664 = load i32, i32* %663, align 4, !dbg !2281, !tbaa !1801
  %665 = sext i32 %664 to i64, !dbg !2282
  %666 = getelementptr inbounds double, double* %203, i64 %665, !dbg !2282
  %667 = load double, double* %666, align 8, !dbg !2282, !tbaa !2020
  %668 = fcmp ogt double %667, 0.000000e+00, !dbg !2283
  br i1 %668, label %669, label %670, !dbg !2284

669:                                              ; preds = %662
  store i8 0, i8* %637, align 1, !dbg !2285, !tbaa !2099
  br label %670, !dbg !2287

670:                                              ; preds = %669, %662, %635
  %671 = add nsw i64 %623, 2, !dbg !2288
  call void @llvm.dbg.value(metadata i64 %671, metadata !355, metadata !DIExpression()), !dbg !2273
  %672 = icmp sgt i64 %18, %671, !dbg !2355
  br i1 %672, label %622, label %618, !dbg !2274, !llvm.loop !2356

673:                                              ; preds = %185
  %674 = load double, double* %139, align 8, !dbg !2139, !tbaa !2020
  %675 = fptosi double %674 to i32, !dbg !2139
  %676 = getelementptr inbounds i32, i32* %140, i64 %186, !dbg !2140
  %677 = load i32, i32* %676, align 4, !dbg !2141, !tbaa !1801
  %678 = add nsw i32 %677, %675, !dbg !2141
  store i32 %678, i32* %676, align 4, !dbg !2141, !tbaa !1801
  br label %679, !dbg !2142

679:                                              ; preds = %673, %185
  %680 = add nsw i64 %175, 2, !dbg !2143
  call void @llvm.dbg.value(metadata i64 %680, metadata !323, metadata !DIExpression()), !dbg !2128
  %681 = icmp sgt i64 %18, %680, !dbg !2358
  br i1 %681, label %174, label %165, !dbg !2129, !llvm.loop !2359

682:                                              ; preds = %98
  %683 = add nsw i32 %99, 1, !dbg !2102
  call void @llvm.dbg.value(metadata i32 %683, metadata !312, metadata !DIExpression()), !dbg !2052
  %684 = getelementptr inbounds i32, i32* %45, i64 %100, !dbg !2103
  store i32 %99, i32* %684, align 4, !dbg !2104, !tbaa !1801
  br label %685, !dbg !2105

685:                                              ; preds = %682, %98
  %686 = phi i32 [ %683, %682 ], [ %99, %98 ], !dbg !2052
  call void @llvm.dbg.value(metadata i32 %686, metadata !312, metadata !DIExpression()), !dbg !2052
  %687 = add nsw i64 %89, 2, !dbg !2118
  call void @llvm.dbg.value(metadata i64 %687, metadata !313, metadata !DIExpression()), !dbg !2087
  %688 = add i64 %91, -2, !dbg !2091
  %689 = icmp eq i64 %688, 0, !dbg !2091
  br i1 %689, label %57, label %88, !dbg !2091, !llvm.loop !2361
}

; Function Attrs: argmemonly nounwind willreturn
declare void @llvm.memset.p0i8.i64(i8* nocapture writeonly, i8, i64, i1 immarg) #1

; Function Attrs: nounwind uwtable
define dso_local float @_Z3pFLP6PointsPiifPldlfiP17pthread_barrier_t(%struct.Points* nocapture readonly %0, i32* nocapture %1, i32 %2, float %3, i64* nocapture %4, double %5, i64 %6, float %7, i32 %8, %union.pthread_barrier_t* %9) local_unnamed_addr #0 !dbg !2363 {
  call void @llvm.dbg.value(metadata %struct.Points* %0, metadata !2367, metadata !DIExpression()), !dbg !2381
  call void @llvm.dbg.value(metadata i32* %1, metadata !2368, metadata !DIExpression()), !dbg !2381
  call void @llvm.dbg.value(metadata i32 %2, metadata !2369, metadata !DIExpression()), !dbg !2381
  call void @llvm.dbg.value(metadata float %3, metadata !2370, metadata !DIExpression()), !dbg !2381
  call void @llvm.dbg.value(metadata i64* %4, metadata !2371, metadata !DIExpression()), !dbg !2381
  call void @llvm.dbg.value(metadata double %5, metadata !2372, metadata !DIExpression()), !dbg !2381
  call void @llvm.dbg.value(metadata i64 %6, metadata !2373, metadata !DIExpression()), !dbg !2381
  call void @llvm.dbg.value(metadata float %7, metadata !2374, metadata !DIExpression()), !dbg !2381
  call void @llvm.dbg.value(metadata i32 %8, metadata !2375, metadata !DIExpression()), !dbg !2381
  call void @llvm.dbg.value(metadata %union.pthread_barrier_t* %9, metadata !2376, metadata !DIExpression()), !dbg !2381
  %11 = tail call i32 @pthread_barrier_wait(%union.pthread_barrier_t* %9) #15, !dbg !2382
  call void @llvm.dbg.value(metadata double %5, metadata !2379, metadata !DIExpression()), !dbg !2381
  call void @llvm.dbg.value(metadata double %5, metadata !2372, metadata !DIExpression()), !dbg !2381
  %12 = fdiv double %5, %5, !dbg !2383
  %13 = fpext float %7 to double, !dbg !2384
  %14 = fcmp ogt double %12, %13, !dbg !2385
  br i1 %14, label %15, label %55, !dbg !2386

15:                                               ; preds = %10
  %16 = icmp ne i32 %8, 0, !dbg !2387
  %17 = sext i32 %2 to i64, !dbg !2390
  %18 = icmp slt i32 %2, 1, !dbg !2390
  %19 = icmp sgt i64 %6, 0, !dbg !2393
  %20 = fpext float %3 to double, !dbg !2396
  %21 = or i1 %16, %18, !dbg !2398
  br label %22, !dbg !2386

22:                                               ; preds = %15, %49
  %23 = phi double [ %5, %15 ], [ %51, %49 ]
  call void @llvm.dbg.value(metadata double %23, metadata !2372, metadata !DIExpression()), !dbg !2381
  call void @llvm.dbg.value(metadata double 0.000000e+00, metadata !2379, metadata !DIExpression()), !dbg !2381
  call void @llvm.dbg.value(metadata i64 undef, metadata !2380, metadata !DIExpression()), !dbg !2381
  br i1 %21, label %36, label %24, !dbg !2399

24:                                               ; preds = %22, %24
  %25 = phi i64 [ %34, %24 ], [ 0, %22 ]
  call void @llvm.dbg.value(metadata i64 %25, metadata !1786, metadata !DIExpression()) #15, !dbg !2400
  %26 = tail call i64 @lrand48() #15, !dbg !2401
  %27 = sub nsw i64 %17, %25, !dbg !2402
  %28 = srem i64 %26, %27, !dbg !2403
  %29 = add nsw i64 %28, %25, !dbg !2404
  call void @llvm.dbg.value(metadata i64 %29, metadata !1787, metadata !DIExpression()) #15, !dbg !2400
  %30 = getelementptr inbounds i32, i32* %1, i64 %25, !dbg !2405
  %31 = load i32, i32* %30, align 4, !dbg !2405, !tbaa !1801
  call void @llvm.dbg.value(metadata i32 %31, metadata !1788, metadata !DIExpression()) #15, !dbg !2400
  %32 = getelementptr inbounds i32, i32* %1, i64 %29, !dbg !2406
  %33 = load i32, i32* %32, align 4, !dbg !2406, !tbaa !1801
  store i32 %33, i32* %30, align 4, !dbg !2407, !tbaa !1801
  store i32 %31, i32* %32, align 4, !dbg !2408, !tbaa !1801
  %34 = add nuw nsw i64 %25, 1, !dbg !2409
  call void @llvm.dbg.value(metadata i64 %34, metadata !1786, metadata !DIExpression()) #15, !dbg !2400
  %35 = icmp eq i64 %34, %17, !dbg !2410
  br i1 %35, label %36, label %24, !dbg !2411, !llvm.loop !2412

36:                                               ; preds = %24, %22
  %37 = tail call i32 @pthread_barrier_wait(%union.pthread_barrier_t* %9) #15, !dbg !2414
  call void @llvm.dbg.value(metadata i64 0, metadata !2377, metadata !DIExpression()), !dbg !2381
  call void @llvm.dbg.value(metadata double 0.000000e+00, metadata !2379, metadata !DIExpression()), !dbg !2381
  br i1 %19, label %38, label %49, !dbg !2415

38:                                               ; preds = %36, %38
  %39 = phi double [ %46, %38 ], [ 0.000000e+00, %36 ]
  %40 = phi i64 [ %47, %38 ], [ 0, %36 ]
  call void @llvm.dbg.value(metadata double %39, metadata !2379, metadata !DIExpression()), !dbg !2381
  call void @llvm.dbg.value(metadata i64 %40, metadata !2377, metadata !DIExpression()), !dbg !2381
  %41 = srem i64 %40, %17, !dbg !2416
  call void @llvm.dbg.value(metadata i64 %41, metadata !2378, metadata !DIExpression()), !dbg !2381
  %42 = getelementptr inbounds i32, i32* %1, i64 %41, !dbg !2417
  %43 = load i32, i32* %42, align 4, !dbg !2417, !tbaa !1801
  %44 = sext i32 %43 to i64, !dbg !2417
  %45 = tail call double @_Z5pgainlP6PointsdPliP17pthread_barrier_t(i64 %44, %struct.Points* %0, double %20, i64* %4, i32 %8, %union.pthread_barrier_t* %9), !dbg !2418
  %46 = fadd double %39, %45, !dbg !2419
  call void @llvm.dbg.value(metadata double %46, metadata !2379, metadata !DIExpression()), !dbg !2381
  %47 = add nuw nsw i64 %40, 1, !dbg !2420
  call void @llvm.dbg.value(metadata i64 %47, metadata !2377, metadata !DIExpression()), !dbg !2381
  %48 = icmp eq i64 %47, %6, !dbg !2421
  br i1 %48, label %49, label %38, !dbg !2415, !llvm.loop !2422

49:                                               ; preds = %38, %36
  %50 = phi double [ 0.000000e+00, %36 ], [ %46, %38 ], !dbg !2398
  call void @llvm.dbg.value(metadata double %50, metadata !2379, metadata !DIExpression()), !dbg !2381
  %51 = fsub double %23, %50, !dbg !2424
  call void @llvm.dbg.value(metadata double %51, metadata !2372, metadata !DIExpression()), !dbg !2381
  %52 = tail call i32 @pthread_barrier_wait(%union.pthread_barrier_t* %9) #15, !dbg !2425
  %53 = fdiv double %50, %51, !dbg !2383
  %54 = fcmp ogt double %53, %13, !dbg !2385
  br i1 %54, label %22, label %55, !dbg !2386, !llvm.loop !2426

55:                                               ; preds = %49, %10
  %56 = phi double [ %5, %10 ], [ %51, %49 ]
  call void @llvm.dbg.value(metadata double %56, metadata !2372, metadata !DIExpression()), !dbg !2381
  %57 = fptrunc double %56 to float, !dbg !2428
  ret float %57, !dbg !2429
}

; Function Attrs: nounwind uwtable
define dso_local i32 @_Z19selectfeasible_fastP6PointsPPiiiP17pthread_barrier_t(%struct.Points* nocapture readonly %0, i32** nocapture %1, i32 %2, i32 %3, %union.pthread_barrier_t* nocapture readnone %4) local_unnamed_addr #0 !dbg !2430 {
  call void @llvm.dbg.value(metadata %struct.Points* %0, metadata !2435, metadata !DIExpression()), !dbg !2457
  call void @llvm.dbg.value(metadata i32** %1, metadata !2436, metadata !DIExpression()), !dbg !2457
  call void @llvm.dbg.value(metadata i32 %2, metadata !2437, metadata !DIExpression()), !dbg !2457
  call void @llvm.dbg.value(metadata i32 undef, metadata !2438, metadata !DIExpression()), !dbg !2457
  call void @llvm.dbg.value(metadata %union.pthread_barrier_t* undef, metadata !2439, metadata !DIExpression()), !dbg !2457
  %6 = getelementptr inbounds %struct.Points, %struct.Points* %0, i64 0, i32 0, !dbg !2458
  %7 = load i64, i64* %6, align 8, !dbg !2458, !tbaa !1750
  %8 = trunc i64 %7 to i32, !dbg !2459
  call void @llvm.dbg.value(metadata i32 %8, metadata !2440, metadata !DIExpression()), !dbg !2457
  %9 = sitofp i32 %8 to double, !dbg !2460
  %10 = mul nsw i32 %2, 3, !dbg !2462
  %11 = sitofp i32 %10 to double, !dbg !2463
  %12 = sitofp i32 %2 to double, !dbg !2464
  %13 = tail call double @log(double %12) #15, !dbg !2465
  %14 = fmul double %13, %11, !dbg !2466
  %15 = fcmp olt double %14, %9, !dbg !2467
  br i1 %15, label %16, label %20, !dbg !2468

16:                                               ; preds = %5
  %17 = tail call double @log(double %12) #15, !dbg !2469
  %18 = fmul double %17, %11, !dbg !2470
  %19 = fptosi double %18 to i32, !dbg !2471
  call void @llvm.dbg.value(metadata i32 %19, metadata !2440, metadata !DIExpression()), !dbg !2457
  br label %20, !dbg !2472

20:                                               ; preds = %16, %5
  %21 = phi i32 [ %19, %16 ], [ %8, %5 ], !dbg !2457
  call void @llvm.dbg.value(metadata i32 %21, metadata !2440, metadata !DIExpression()), !dbg !2457
  %22 = sext i32 %21 to i64, !dbg !2473
  %23 = shl nsw i64 %22, 2, !dbg !2474
  %24 = tail call noalias i8* @malloc(i64 %23) #15, !dbg !2475
  %25 = bitcast i32** %1 to i8**, !dbg !2476
  store i8* %24, i8** %25, align 8, !dbg !2476, !tbaa !1768
  call void @llvm.dbg.value(metadata i64 0, metadata !2443, metadata !DIExpression()), !dbg !2457
  call void @llvm.dbg.value(metadata i64 %22, metadata !2444, metadata !DIExpression()), !dbg !2457
  %26 = load i64, i64* %6, align 8, !dbg !2477, !tbaa !1750
  %27 = icmp eq i64 %26, %22, !dbg !2478
  %28 = bitcast i8* %24 to i32*, !dbg !2479
  br i1 %27, label %29, label %103, !dbg !2479

29:                                               ; preds = %20
  call void @llvm.dbg.value(metadata i32 0, metadata !2449, metadata !DIExpression()), !dbg !2480
  %30 = icmp sgt i32 %21, 0, !dbg !2481
  br i1 %30, label %31, label %201, !dbg !2483

31:                                               ; preds = %29
  %32 = icmp ult i32 %21, 8, !dbg !2483
  br i1 %32, label %95, label %33, !dbg !2483

33:                                               ; preds = %31
  %34 = and i64 %22, -8, !dbg !2483
  %35 = add nsw i64 %34, -8, !dbg !2483
  %36 = lshr exact i64 %35, 3, !dbg !2483
  %37 = add nuw nsw i64 %36, 1, !dbg !2483
  %38 = and i64 %37, 3, !dbg !2483
  %39 = icmp ult i64 %35, 24, !dbg !2483
  br i1 %39, label %76, label %40, !dbg !2483

40:                                               ; preds = %33
  %41 = sub nsw i64 %37, %38, !dbg !2483
  br label %42, !dbg !2483

42:                                               ; preds = %42, %40
  %43 = phi i64 [ 0, %40 ], [ %72, %42 ], !dbg !2484
  %44 = phi <4 x i32> [ <i32 0, i32 1, i32 2, i32 3>, %40 ], [ %73, %42 ], !dbg !2485
  %45 = phi i64 [ %41, %40 ], [ %74, %42 ]
  %46 = getelementptr inbounds i32, i32* %28, i64 %43, !dbg !2486
  %47 = add <4 x i32> %44, <i32 4, i32 4, i32 4, i32 4>, !dbg !2485
  %48 = bitcast i32* %46 to <4 x i32>*, !dbg !2485
  store <4 x i32> %44, <4 x i32>* %48, align 4, !dbg !2485, !tbaa !1801
  %49 = getelementptr inbounds i32, i32* %46, i64 4, !dbg !2485
  %50 = bitcast i32* %49 to <4 x i32>*, !dbg !2485
  store <4 x i32> %47, <4 x i32>* %50, align 4, !dbg !2485, !tbaa !1801
  %51 = or i64 %43, 8, !dbg !2484
  %52 = add <4 x i32> %44, <i32 8, i32 8, i32 8, i32 8>, !dbg !2485
  %53 = getelementptr inbounds i32, i32* %28, i64 %51, !dbg !2486
  %54 = add <4 x i32> %44, <i32 12, i32 12, i32 12, i32 12>, !dbg !2485
  %55 = bitcast i32* %53 to <4 x i32>*, !dbg !2485
  store <4 x i32> %52, <4 x i32>* %55, align 4, !dbg !2485, !tbaa !1801
  %56 = getelementptr inbounds i32, i32* %53, i64 4, !dbg !2485
  %57 = bitcast i32* %56 to <4 x i32>*, !dbg !2485
  store <4 x i32> %54, <4 x i32>* %57, align 4, !dbg !2485, !tbaa !1801
  %58 = or i64 %43, 16, !dbg !2484
  %59 = add <4 x i32> %44, <i32 16, i32 16, i32 16, i32 16>, !dbg !2485
  %60 = getelementptr inbounds i32, i32* %28, i64 %58, !dbg !2486
  %61 = add <4 x i32> %44, <i32 20, i32 20, i32 20, i32 20>, !dbg !2485
  %62 = bitcast i32* %60 to <4 x i32>*, !dbg !2485
  store <4 x i32> %59, <4 x i32>* %62, align 4, !dbg !2485, !tbaa !1801
  %63 = getelementptr inbounds i32, i32* %60, i64 4, !dbg !2485
  %64 = bitcast i32* %63 to <4 x i32>*, !dbg !2485
  store <4 x i32> %61, <4 x i32>* %64, align 4, !dbg !2485, !tbaa !1801
  %65 = or i64 %43, 24, !dbg !2484
  %66 = add <4 x i32> %44, <i32 24, i32 24, i32 24, i32 24>, !dbg !2485
  %67 = getelementptr inbounds i32, i32* %28, i64 %65, !dbg !2486
  %68 = add <4 x i32> %44, <i32 28, i32 28, i32 28, i32 28>, !dbg !2485
  %69 = bitcast i32* %67 to <4 x i32>*, !dbg !2485
  store <4 x i32> %66, <4 x i32>* %69, align 4, !dbg !2485, !tbaa !1801
  %70 = getelementptr inbounds i32, i32* %67, i64 4, !dbg !2485
  %71 = bitcast i32* %70 to <4 x i32>*, !dbg !2485
  store <4 x i32> %68, <4 x i32>* %71, align 4, !dbg !2485, !tbaa !1801
  %72 = add i64 %43, 32, !dbg !2484
  %73 = add <4 x i32> %44, <i32 32, i32 32, i32 32, i32 32>, !dbg !2485
  %74 = add i64 %45, -4, !dbg !2484
  %75 = icmp eq i64 %74, 0, !dbg !2484
  br i1 %75, label %76, label %42, !dbg !2484, !llvm.loop !2487

76:                                               ; preds = %42, %33
  %77 = phi i64 [ 0, %33 ], [ %72, %42 ]
  %78 = phi <4 x i32> [ <i32 0, i32 1, i32 2, i32 3>, %33 ], [ %73, %42 ]
  %79 = icmp eq i64 %38, 0, !dbg !2484
  br i1 %79, label %93, label %80, !dbg !2484

80:                                               ; preds = %76, %80
  %81 = phi i64 [ %89, %80 ], [ %77, %76 ], !dbg !2484
  %82 = phi <4 x i32> [ %90, %80 ], [ %78, %76 ], !dbg !2485
  %83 = phi i64 [ %91, %80 ], [ %38, %76 ]
  %84 = getelementptr inbounds i32, i32* %28, i64 %81, !dbg !2486
  %85 = add <4 x i32> %82, <i32 4, i32 4, i32 4, i32 4>, !dbg !2485
  %86 = bitcast i32* %84 to <4 x i32>*, !dbg !2485
  store <4 x i32> %82, <4 x i32>* %86, align 4, !dbg !2485, !tbaa !1801
  %87 = getelementptr inbounds i32, i32* %84, i64 4, !dbg !2485
  %88 = bitcast i32* %87 to <4 x i32>*, !dbg !2485
  store <4 x i32> %85, <4 x i32>* %88, align 4, !dbg !2485, !tbaa !1801
  %89 = add i64 %81, 8, !dbg !2484
  %90 = add <4 x i32> %82, <i32 8, i32 8, i32 8, i32 8>, !dbg !2485
  %91 = add i64 %83, -1, !dbg !2484
  %92 = icmp eq i64 %91, 0, !dbg !2484
  br i1 %92, label %93, label %80, !dbg !2484, !llvm.loop !2490

93:                                               ; preds = %80, %76
  %94 = icmp eq i64 %34, %22, !dbg !2483
  br i1 %94, label %201, label %95, !dbg !2483

95:                                               ; preds = %93, %31
  %96 = phi i64 [ 0, %31 ], [ %34, %93 ]
  br label %97, !dbg !2483

97:                                               ; preds = %95, %97
  %98 = phi i64 [ %101, %97 ], [ %96, %95 ]
  call void @llvm.dbg.value(metadata i64 %98, metadata !2449, metadata !DIExpression()), !dbg !2480
  %99 = getelementptr inbounds i32, i32* %28, i64 %98, !dbg !2486
  %100 = trunc i64 %98 to i32, !dbg !2485
  store i32 %100, i32* %99, align 4, !dbg !2485, !tbaa !1801
  %101 = add nuw nsw i64 %98, 1, !dbg !2484
  call void @llvm.dbg.value(metadata i64 %101, metadata !2449, metadata !DIExpression()), !dbg !2480
  %102 = icmp eq i64 %101, %22, !dbg !2481
  br i1 %102, label %201, label %97, !dbg !2483, !llvm.loop !2491

103:                                              ; preds = %20
  %104 = shl i64 %26, 2, !dbg !2493
  %105 = tail call noalias i8* @malloc(i64 %104) #15, !dbg !2494
  %106 = bitcast i8* %105 to float*, !dbg !2495
  call void @llvm.dbg.value(metadata float* %106, metadata !2441, metadata !DIExpression()), !dbg !2457
  %107 = getelementptr inbounds %struct.Points, %struct.Points* %0, i64 0, i32 2, !dbg !2496
  %108 = bitcast %struct.Point** %107 to i32**, !dbg !2496
  %109 = load i32*, i32** %108, align 8, !dbg !2496, !tbaa !1764
  %110 = load i32, i32* %109, align 8, !dbg !2497, !tbaa !1878
  %111 = bitcast i8* %105 to i32*, !dbg !2498
  store i32 %110, i32* %111, align 4, !dbg !2498, !tbaa !1725
  call void @llvm.dbg.value(metadata float 0.000000e+00, metadata !2442, metadata !DIExpression()), !dbg !2457
  call void @llvm.dbg.value(metadata i32 1, metadata !2453, metadata !DIExpression()), !dbg !2499
  %112 = icmp sgt i64 %26, 1, !dbg !2500
  %113 = bitcast i32* %109 to %struct.Point*, !dbg !2502
  br i1 %112, label %114, label %137, !dbg !2502

114:                                              ; preds = %103
  %115 = bitcast i32 %110 to float, !dbg !2502
  %116 = add i64 %26, -1, !dbg !2502
  %117 = add i64 %26, -2, !dbg !2502
  %118 = and i64 %116, 3, !dbg !2502
  %119 = icmp ult i64 %117, 3, !dbg !2502
  br i1 %119, label %122, label %120, !dbg !2502

120:                                              ; preds = %114
  %121 = sub i64 %116, %118, !dbg !2502
  br label %142, !dbg !2502

122:                                              ; preds = %142, %114
  %123 = phi float [ %115, %114 ], [ %163, %142 ]
  %124 = phi i64 [ 1, %114 ], [ %165, %142 ]
  %125 = icmp eq i64 %118, 0, !dbg !2502
  br i1 %125, label %137, label %126, !dbg !2502

126:                                              ; preds = %122, %126
  %127 = phi float [ %132, %126 ], [ %123, %122 ], !dbg !2503
  %128 = phi i64 [ %134, %126 ], [ %124, %122 ]
  %129 = phi i64 [ %135, %126 ], [ %118, %122 ]
  call void @llvm.dbg.value(metadata i64 %128, metadata !2453, metadata !DIExpression()), !dbg !2499
  %130 = getelementptr inbounds %struct.Point, %struct.Point* %113, i64 %128, i32 0, !dbg !2505
  %131 = load float, float* %130, align 8, !dbg !2505, !tbaa !1878
  %132 = fadd float %127, %131, !dbg !2506
  %133 = getelementptr inbounds float, float* %106, i64 %128, !dbg !2507
  store float %132, float* %133, align 4, !dbg !2508, !tbaa !1725
  %134 = add nuw nsw i64 %128, 1, !dbg !2509
  call void @llvm.dbg.value(metadata i64 %134, metadata !2453, metadata !DIExpression()), !dbg !2499
  %135 = add i64 %129, -1, !dbg !2502
  %136 = icmp eq i64 %135, 0, !dbg !2502
  br i1 %136, label %137, label %126, !dbg !2502, !llvm.loop !2510

137:                                              ; preds = %122, %126, %103
  %138 = add nsw i64 %26, -1, !dbg !2511
  %139 = getelementptr inbounds float, float* %106, i64 %138, !dbg !2512
  %140 = load float, float* %139, align 4, !dbg !2512, !tbaa !1725
  call void @llvm.dbg.value(metadata float %140, metadata !2442, metadata !DIExpression()), !dbg !2457
  call void @llvm.dbg.value(metadata i32 0, metadata !2455, metadata !DIExpression()), !dbg !2513
  %141 = icmp sgt i32 %21, 0, !dbg !2514
  br i1 %141, label %169, label %168, !dbg !2516

142:                                              ; preds = %142, %120
  %143 = phi float [ %115, %120 ], [ %163, %142 ], !dbg !2503
  %144 = phi i64 [ 1, %120 ], [ %165, %142 ]
  %145 = phi i64 [ %121, %120 ], [ %166, %142 ]
  call void @llvm.dbg.value(metadata i64 %144, metadata !2453, metadata !DIExpression()), !dbg !2499
  %146 = getelementptr inbounds %struct.Point, %struct.Point* %113, i64 %144, i32 0, !dbg !2505
  %147 = load float, float* %146, align 8, !dbg !2505, !tbaa !1878
  %148 = fadd float %143, %147, !dbg !2506
  %149 = getelementptr inbounds float, float* %106, i64 %144, !dbg !2507
  store float %148, float* %149, align 4, !dbg !2508, !tbaa !1725
  %150 = add nuw nsw i64 %144, 1, !dbg !2509
  call void @llvm.dbg.value(metadata i64 %150, metadata !2453, metadata !DIExpression()), !dbg !2499
  %151 = getelementptr inbounds %struct.Point, %struct.Point* %113, i64 %150, i32 0, !dbg !2505
  %152 = load float, float* %151, align 8, !dbg !2505, !tbaa !1878
  %153 = fadd float %148, %152, !dbg !2506
  %154 = getelementptr inbounds float, float* %106, i64 %150, !dbg !2507
  store float %153, float* %154, align 4, !dbg !2508, !tbaa !1725
  %155 = add nuw nsw i64 %144, 2, !dbg !2509
  call void @llvm.dbg.value(metadata i64 %155, metadata !2453, metadata !DIExpression()), !dbg !2499
  %156 = getelementptr inbounds %struct.Point, %struct.Point* %113, i64 %155, i32 0, !dbg !2505
  %157 = load float, float* %156, align 8, !dbg !2505, !tbaa !1878
  %158 = fadd float %153, %157, !dbg !2506
  %159 = getelementptr inbounds float, float* %106, i64 %155, !dbg !2507
  store float %158, float* %159, align 4, !dbg !2508, !tbaa !1725
  %160 = add nuw nsw i64 %144, 3, !dbg !2509
  call void @llvm.dbg.value(metadata i64 %160, metadata !2453, metadata !DIExpression()), !dbg !2499
  %161 = getelementptr inbounds %struct.Point, %struct.Point* %113, i64 %160, i32 0, !dbg !2505
  %162 = load float, float* %161, align 8, !dbg !2505, !tbaa !1878
  %163 = fadd float %158, %162, !dbg !2506
  %164 = getelementptr inbounds float, float* %106, i64 %160, !dbg !2507
  store float %163, float* %164, align 4, !dbg !2508, !tbaa !1725
  %165 = add nuw nsw i64 %144, 4, !dbg !2509
  call void @llvm.dbg.value(metadata i64 %165, metadata !2453, metadata !DIExpression()), !dbg !2499
  %166 = add i64 %145, -4, !dbg !2502
  %167 = icmp eq i64 %166, 0, !dbg !2502
  br i1 %167, label %122, label %142, !dbg !2502, !llvm.loop !2517

168:                                              ; preds = %195, %137
  tail call void @free(i8* nonnull %105) #15, !dbg !2519
  br label %201, !dbg !2520

169:                                              ; preds = %137, %195
  %170 = phi i64 [ %199, %195 ], [ 0, %137 ]
  call void @llvm.dbg.value(metadata i64 %170, metadata !2455, metadata !DIExpression()), !dbg !2513
  %171 = tail call i64 @lrand48() #15, !dbg !2521
  %172 = sitofp i64 %171 to float, !dbg !2521
  %173 = fmul float %172, 0x3E00000000000000, !dbg !2523
  %174 = fmul float %140, %173, !dbg !2524
  call void @llvm.dbg.value(metadata float %174, metadata !2445, metadata !DIExpression()), !dbg !2457
  call void @llvm.dbg.value(metadata i32 0, metadata !2446, metadata !DIExpression()), !dbg !2457
  %175 = load i64, i64* %6, align 8, !dbg !2525, !tbaa !1750
  %176 = trunc i64 %175 to i32, !dbg !2526
  %177 = add i32 %176, -1, !dbg !2526
  call void @llvm.dbg.value(metadata i32 %177, metadata !2447, metadata !DIExpression()), !dbg !2457
  %178 = load float, float* %106, align 4, !dbg !2527, !tbaa !1725
  %179 = fcmp ogt float %178, %174, !dbg !2529
  br i1 %179, label %195, label %180, !dbg !2530

180:                                              ; preds = %169
  call void @llvm.dbg.value(metadata i32 %177, metadata !2447, metadata !DIExpression()), !dbg !2457
  call void @llvm.dbg.value(metadata i32 0, metadata !2446, metadata !DIExpression()), !dbg !2457
  %181 = icmp sgt i32 %177, 1, !dbg !2531
  br i1 %181, label %182, label %195, !dbg !2532

182:                                              ; preds = %180, %182
  %183 = phi i32 [ %192, %182 ], [ %177, %180 ]
  %184 = phi i32 [ %191, %182 ], [ 0, %180 ]
  call void @llvm.dbg.value(metadata i32 %183, metadata !2447, metadata !DIExpression()), !dbg !2457
  call void @llvm.dbg.value(metadata i32 %184, metadata !2446, metadata !DIExpression()), !dbg !2457
  %185 = add nsw i32 %183, %184, !dbg !2533
  %186 = sdiv i32 %185, 2, !dbg !2535
  call void @llvm.dbg.value(metadata i32 %186, metadata !2448, metadata !DIExpression()), !dbg !2457
  %187 = sext i32 %186 to i64, !dbg !2536
  %188 = getelementptr inbounds float, float* %106, i64 %187, !dbg !2536
  %189 = load float, float* %188, align 4, !dbg !2536, !tbaa !1725
  %190 = fcmp ogt float %189, %174, !dbg !2538
  %191 = select i1 %190, i32 %184, i32 %186
  %192 = select i1 %190, i32 %186, i32 %183
  call void @llvm.dbg.value(metadata i32 %192, metadata !2447, metadata !DIExpression()), !dbg !2457
  call void @llvm.dbg.value(metadata i32 %191, metadata !2446, metadata !DIExpression()), !dbg !2457
  %193 = add nsw i32 %191, 1, !dbg !2539
  %194 = icmp slt i32 %193, %192, !dbg !2531
  br i1 %194, label %182, label %195, !dbg !2532, !llvm.loop !2540

195:                                              ; preds = %182, %180, %169
  %196 = phi i32 [ 0, %169 ], [ %177, %180 ], [ %192, %182 ]
  %197 = load i32*, i32** %1, align 8, !dbg !2542, !tbaa !1768
  %198 = getelementptr inbounds i32, i32* %197, i64 %170, !dbg !2542
  store i32 %196, i32* %198, align 4, !dbg !2542, !tbaa !1801
  %199 = add nuw nsw i64 %170, 1, !dbg !2543
  call void @llvm.dbg.value(metadata i64 %199, metadata !2455, metadata !DIExpression()), !dbg !2513
  %200 = icmp eq i64 %199, %22, !dbg !2514
  br i1 %200, label %168, label %169, !dbg !2516, !llvm.loop !2544

201:                                              ; preds = %97, %93, %29, %168
  ret i32 %21, !dbg !2546
}

; Function Attrs: nofree nounwind
declare dso_local double @log(double) local_unnamed_addr #3

; Function Attrs: uwtable
define dso_local float @_Z8pkmedianP6PointsllPliP17pthread_barrier_t(%struct.Points* nocapture readonly %0, i64 %1, i64 %2, i64* nocapture %3, i32 %4, %union.pthread_barrier_t* %5) local_unnamed_addr #6 !dbg !363 {
  %7 = alloca %struct.Point, align 8
  call void @llvm.dbg.declare(metadata %struct.Point* %7, metadata !1743, metadata !DIExpression()), !dbg !2547
  %8 = alloca %struct.Point, align 8
  call void @llvm.dbg.declare(metadata %struct.Point* %8, metadata !1743, metadata !DIExpression()), !dbg !2551
  call void @llvm.dbg.value(metadata %struct.Points* %0, metadata !367, metadata !DIExpression()), !dbg !2554
  call void @llvm.dbg.value(metadata i64 %1, metadata !368, metadata !DIExpression()), !dbg !2554
  call void @llvm.dbg.value(metadata i64 %2, metadata !369, metadata !DIExpression()), !dbg !2554
  call void @llvm.dbg.value(metadata i64* %3, metadata !370, metadata !DIExpression()), !dbg !2554
  call void @llvm.dbg.value(metadata i32 %4, metadata !371, metadata !DIExpression()), !dbg !2554
  call void @llvm.dbg.value(metadata %union.pthread_barrier_t* %5, metadata !372, metadata !DIExpression()), !dbg !2554
  %9 = icmp eq i32 %4, 0, !dbg !2555
  %10 = load i32, i32* @_ZL5nproc, align 4, !dbg !2554, !tbaa !1801
  %11 = sext i32 %10 to i64, !dbg !2554
  br i1 %9, label %12, label %14, !dbg !2557

12:                                               ; preds = %6
  %13 = tail call noalias i8* @calloc(i64 %11, i64 8) #15, !dbg !2558
  store i8* %13, i8** bitcast (double** @_ZZ8pkmedianP6PointsllPliP17pthread_barrier_tE4hizs to i8**), align 8, !dbg !2559, !tbaa !1768
  br label %14, !dbg !2560

14:                                               ; preds = %6, %12
  call void @llvm.dbg.value(metadata double 0.000000e+00, metadata !377, metadata !DIExpression()), !dbg !2554
  call void @llvm.dbg.value(metadata double 0.000000e+00, metadata !376, metadata !DIExpression()), !dbg !2554
  %15 = getelementptr inbounds %struct.Points, %struct.Points* %0, i64 0, i32 0, !dbg !2561
  call void @llvm.dbg.value(metadata i64 undef, metadata !379, metadata !DIExpression()), !dbg !2554
  %16 = getelementptr inbounds %struct.Points, %struct.Points* %0, i64 0, i32 1, !dbg !2562
  %17 = load i32, i32* %16, align 8, !dbg !2562, !tbaa !1856
  call void @llvm.dbg.value(metadata i32 %17, metadata !380, metadata !DIExpression(DW_OP_LLVM_convert, 32, DW_ATE_signed, DW_OP_LLVM_convert, 64, DW_ATE_signed, DW_OP_stack_value)), !dbg !2554
  %18 = load i64, i64* %15, align 8, !dbg !2563, !tbaa !1750
  %19 = sdiv i64 %18, %11, !dbg !2564
  call void @llvm.dbg.value(metadata i64 %19, metadata !381, metadata !DIExpression()), !dbg !2554
  %20 = sext i32 %4 to i64, !dbg !2565
  %21 = mul nsw i64 %19, %20, !dbg !2566
  call void @llvm.dbg.value(metadata i64 %21, metadata !382, metadata !DIExpression()), !dbg !2554
  %22 = add nsw i64 %21, %19, !dbg !2567
  call void @llvm.dbg.value(metadata i64 %22, metadata !383, metadata !DIExpression()), !dbg !2554
  %23 = add nsw i32 %10, -1, !dbg !2568
  %24 = icmp eq i32 %23, %4, !dbg !2570
  %25 = select i1 %24, i64 %18, i64 %22, !dbg !2571
  call void @llvm.dbg.value(metadata i64 %25, metadata !383, metadata !DIExpression()), !dbg !2554
  %26 = tail call i32 @pthread_barrier_wait(%union.pthread_barrier_t* %5) #15, !dbg !2572
  call void @llvm.dbg.value(metadata double 0.000000e+00, metadata !384, metadata !DIExpression()), !dbg !2554
  call void @llvm.dbg.value(metadata i64 %21, metadata !385, metadata !DIExpression()), !dbg !2573
  %27 = icmp slt i64 %21, %25, !dbg !2574
  br i1 %27, label %28, label %40, !dbg !2576

28:                                               ; preds = %14
  %29 = getelementptr inbounds %struct.Points, %struct.Points* %0, i64 0, i32 2, !dbg !2577
  %30 = load %struct.Point*, %struct.Point** %29, align 8, !dbg !2577, !tbaa !1764
  %31 = getelementptr inbounds %struct.Point, %struct.Point* %30, i64 0, i32 1, !dbg !2577
  %32 = load float*, float** %31, align 8, !dbg !2577, !tbaa.struct !1767
  %33 = icmp sgt i32 %17, 0, !dbg !2579
  %34 = zext i32 %17 to i64, !dbg !2579
  %35 = add nsw i64 %34, -1, !dbg !2576
  %36 = and i64 %34, 3, !dbg !2581
  %37 = icmp ult i64 %35, 3, !dbg !2581
  %38 = sub nsw i64 %34, %36, !dbg !2581
  %39 = icmp eq i64 %36, 0, !dbg !2581
  br label %55, !dbg !2576

40:                                               ; preds = %117, %14
  %41 = phi double [ 0.000000e+00, %14 ], [ %123, %117 ], !dbg !2554
  call void @llvm.dbg.value(metadata double %41, metadata !384, metadata !DIExpression()), !dbg !2554
  %42 = load double*, double** @_ZZ8pkmedianP6PointsllPliP17pthread_barrier_tE4hizs, align 8, !dbg !2582, !tbaa !1768
  %43 = getelementptr inbounds double, double* %42, i64 %20, !dbg !2582
  store double %41, double* %43, align 8, !dbg !2583, !tbaa !2020
  %44 = tail call i32 @pthread_barrier_wait(%union.pthread_barrier_t* %5) #15, !dbg !2584
  call void @llvm.dbg.value(metadata i32 0, metadata !387, metadata !DIExpression()), !dbg !2585
  call void @llvm.dbg.value(metadata double 0.000000e+00, metadata !376, metadata !DIExpression()), !dbg !2554
  %45 = load i32, i32* @_ZL5nproc, align 4, !dbg !2586, !tbaa !1801
  %46 = icmp sgt i32 %45, 0, !dbg !2588
  br i1 %46, label %47, label %141, !dbg !2589

47:                                               ; preds = %40
  %48 = load double*, double** @_ZZ8pkmedianP6PointsllPliP17pthread_barrier_tE4hizs, align 8, !dbg !2590, !tbaa !1768
  %49 = zext i32 %45 to i64, !dbg !2589
  %50 = add nsw i64 %49, -1, !dbg !2589
  %51 = and i64 %49, 7, !dbg !2589
  %52 = icmp ult i64 %50, 7, !dbg !2589
  br i1 %52, label %126, label %53, !dbg !2589

53:                                               ; preds = %47
  %54 = sub nsw i64 %49, %51, !dbg !2589
  br label %163, !dbg !2589

55:                                               ; preds = %117, %28
  %56 = phi i64 [ %21, %28 ], [ %124, %117 ]
  %57 = phi double [ 0.000000e+00, %28 ], [ %123, %117 ]
  call void @llvm.dbg.value(metadata i64 %56, metadata !385, metadata !DIExpression()), !dbg !2573
  call void @llvm.dbg.value(metadata double %57, metadata !384, metadata !DIExpression()), !dbg !2554
  call void @llvm.dbg.value(metadata i64 undef, metadata !1813, metadata !DIExpression(DW_OP_LLVM_fragment, 0, 64)), !dbg !2592
  %58 = getelementptr inbounds %struct.Point, %struct.Point* %30, i64 %56, i32 1, !dbg !2593
  %59 = load float*, float** %58, align 8, !dbg !2593, !tbaa.struct !1767
  call void @llvm.dbg.value(metadata float* %59, metadata !1813, metadata !DIExpression(DW_OP_LLVM_fragment, 64, 64)), !dbg !2592
  call void @llvm.dbg.value(metadata i64 undef, metadata !1814, metadata !DIExpression(DW_OP_LLVM_fragment, 0, 64)), !dbg !2592
  call void @llvm.dbg.value(metadata float* %32, metadata !1814, metadata !DIExpression(DW_OP_LLVM_fragment, 64, 64)), !dbg !2592
  call void @llvm.dbg.value(metadata i32 %17, metadata !1815, metadata !DIExpression()), !dbg !2592
  call void @llvm.dbg.value(metadata float 0.000000e+00, metadata !1817, metadata !DIExpression()), !dbg !2592
  call void @llvm.dbg.value(metadata i32 0, metadata !1816, metadata !DIExpression()), !dbg !2592
  br i1 %33, label %60, label %117, !dbg !2594

60:                                               ; preds = %55
  br i1 %37, label %99, label %61, !dbg !2594

61:                                               ; preds = %60, %61
  %62 = phi i64 [ %96, %61 ], [ 0, %60 ]
  %63 = phi float [ %95, %61 ], [ 0.000000e+00, %60 ]
  %64 = phi i64 [ %97, %61 ], [ %38, %60 ]
  call void @llvm.dbg.value(metadata float %63, metadata !1817, metadata !DIExpression()), !dbg !2592
  call void @llvm.dbg.value(metadata i64 %62, metadata !1816, metadata !DIExpression()), !dbg !2592
  %65 = getelementptr inbounds float, float* %59, i64 %62, !dbg !2595
  %66 = load float, float* %65, align 4, !dbg !2595, !tbaa !1725
  %67 = getelementptr inbounds float, float* %32, i64 %62, !dbg !2596
  %68 = load float, float* %67, align 4, !dbg !2596, !tbaa !1725
  %69 = fsub float %66, %68, !dbg !2597
  %70 = fmul float %69, %69, !dbg !2598
  %71 = fadd float %63, %70, !dbg !2599
  call void @llvm.dbg.value(metadata float %71, metadata !1817, metadata !DIExpression()), !dbg !2592
  %72 = or i64 %62, 1, !dbg !2600
  call void @llvm.dbg.value(metadata i64 %72, metadata !1816, metadata !DIExpression()), !dbg !2592
  %73 = getelementptr inbounds float, float* %59, i64 %72, !dbg !2595
  %74 = load float, float* %73, align 4, !dbg !2595, !tbaa !1725
  %75 = getelementptr inbounds float, float* %32, i64 %72, !dbg !2596
  %76 = load float, float* %75, align 4, !dbg !2596, !tbaa !1725
  %77 = fsub float %74, %76, !dbg !2597
  %78 = fmul float %77, %77, !dbg !2598
  %79 = fadd float %71, %78, !dbg !2599
  call void @llvm.dbg.value(metadata float %79, metadata !1817, metadata !DIExpression()), !dbg !2592
  %80 = or i64 %62, 2, !dbg !2600
  call void @llvm.dbg.value(metadata i64 %80, metadata !1816, metadata !DIExpression()), !dbg !2592
  %81 = getelementptr inbounds float, float* %59, i64 %80, !dbg !2595
  %82 = load float, float* %81, align 4, !dbg !2595, !tbaa !1725
  %83 = getelementptr inbounds float, float* %32, i64 %80, !dbg !2596
  %84 = load float, float* %83, align 4, !dbg !2596, !tbaa !1725
  %85 = fsub float %82, %84, !dbg !2597
  %86 = fmul float %85, %85, !dbg !2598
  %87 = fadd float %79, %86, !dbg !2599
  call void @llvm.dbg.value(metadata float %87, metadata !1817, metadata !DIExpression()), !dbg !2592
  %88 = or i64 %62, 3, !dbg !2600
  call void @llvm.dbg.value(metadata i64 %88, metadata !1816, metadata !DIExpression()), !dbg !2592
  %89 = getelementptr inbounds float, float* %59, i64 %88, !dbg !2595
  %90 = load float, float* %89, align 4, !dbg !2595, !tbaa !1725
  %91 = getelementptr inbounds float, float* %32, i64 %88, !dbg !2596
  %92 = load float, float* %91, align 4, !dbg !2596, !tbaa !1725
  %93 = fsub float %90, %92, !dbg !2597
  %94 = fmul float %93, %93, !dbg !2598
  %95 = fadd float %87, %94, !dbg !2599
  call void @llvm.dbg.value(metadata float %95, metadata !1817, metadata !DIExpression()), !dbg !2592
  %96 = add nuw nsw i64 %62, 4, !dbg !2600
  call void @llvm.dbg.value(metadata i64 %96, metadata !1816, metadata !DIExpression()), !dbg !2592
  %97 = add i64 %64, -4, !dbg !2594
  %98 = icmp eq i64 %97, 0, !dbg !2594
  br i1 %98, label %99, label %61, !dbg !2594, !llvm.loop !2601

99:                                               ; preds = %61, %60
  %100 = phi float [ undef, %60 ], [ %95, %61 ]
  %101 = phi i64 [ 0, %60 ], [ %96, %61 ]
  %102 = phi float [ 0.000000e+00, %60 ], [ %95, %61 ]
  br i1 %39, label %117, label %103, !dbg !2594

103:                                              ; preds = %99, %103
  %104 = phi i64 [ %114, %103 ], [ %101, %99 ]
  %105 = phi float [ %113, %103 ], [ %102, %99 ]
  %106 = phi i64 [ %115, %103 ], [ %36, %99 ]
  call void @llvm.dbg.value(metadata float %105, metadata !1817, metadata !DIExpression()), !dbg !2592
  call void @llvm.dbg.value(metadata i64 %104, metadata !1816, metadata !DIExpression()), !dbg !2592
  %107 = getelementptr inbounds float, float* %59, i64 %104, !dbg !2595
  %108 = load float, float* %107, align 4, !dbg !2595, !tbaa !1725
  %109 = getelementptr inbounds float, float* %32, i64 %104, !dbg !2596
  %110 = load float, float* %109, align 4, !dbg !2596, !tbaa !1725
  %111 = fsub float %108, %110, !dbg !2597
  %112 = fmul float %111, %111, !dbg !2598
  %113 = fadd float %105, %112, !dbg !2599
  call void @llvm.dbg.value(metadata float %113, metadata !1817, metadata !DIExpression()), !dbg !2592
  %114 = add nuw nsw i64 %104, 1, !dbg !2600
  call void @llvm.dbg.value(metadata i64 %114, metadata !1816, metadata !DIExpression()), !dbg !2592
  %115 = add i64 %106, -1, !dbg !2594
  %116 = icmp eq i64 %115, 0, !dbg !2594
  br i1 %116, label %117, label %103, !dbg !2594, !llvm.loop !2603

117:                                              ; preds = %99, %103, %55
  %118 = phi float [ 0.000000e+00, %55 ], [ %100, %99 ], [ %113, %103 ], !dbg !2592
  call void @llvm.dbg.value(metadata float %118, metadata !1817, metadata !DIExpression()), !dbg !2592
  %119 = getelementptr inbounds %struct.Point, %struct.Point* %30, i64 %56, i32 0, !dbg !2604
  %120 = load float, float* %119, align 8, !dbg !2604, !tbaa !1878
  %121 = fmul float %118, %120, !dbg !2605
  %122 = fpext float %121 to double, !dbg !2606
  %123 = fadd double %57, %122, !dbg !2607
  call void @llvm.dbg.value(metadata double %123, metadata !384, metadata !DIExpression()), !dbg !2554
  %124 = add nsw i64 %56, 1, !dbg !2608
  call void @llvm.dbg.value(metadata i64 %124, metadata !385, metadata !DIExpression()), !dbg !2573
  %125 = icmp eq i64 %124, %25, !dbg !2574
  br i1 %125, label %40, label %55, !dbg !2576, !llvm.loop !2609

126:                                              ; preds = %163, %47
  %127 = phi double [ undef, %47 ], [ %197, %163 ]
  %128 = phi i64 [ 0, %47 ], [ %198, %163 ]
  %129 = phi double [ 0.000000e+00, %47 ], [ %197, %163 ]
  %130 = icmp eq i64 %51, 0, !dbg !2589
  br i1 %130, label %141, label %131, !dbg !2589

131:                                              ; preds = %126, %131
  %132 = phi i64 [ %138, %131 ], [ %128, %126 ]
  %133 = phi double [ %137, %131 ], [ %129, %126 ]
  %134 = phi i64 [ %139, %131 ], [ %51, %126 ]
  call void @llvm.dbg.value(metadata i64 %132, metadata !387, metadata !DIExpression()), !dbg !2585
  call void @llvm.dbg.value(metadata double %133, metadata !376, metadata !DIExpression()), !dbg !2554
  %135 = getelementptr inbounds double, double* %48, i64 %132, !dbg !2611
  %136 = load double, double* %135, align 8, !dbg !2611, !tbaa !2020
  %137 = fadd double %133, %136, !dbg !2612
  call void @llvm.dbg.value(metadata double %137, metadata !376, metadata !DIExpression()), !dbg !2554
  %138 = add nuw nsw i64 %132, 1, !dbg !2613
  call void @llvm.dbg.value(metadata i64 %138, metadata !387, metadata !DIExpression()), !dbg !2585
  %139 = add i64 %134, -1, !dbg !2589
  %140 = icmp eq i64 %139, 0, !dbg !2589
  br i1 %140, label %141, label %131, !dbg !2589, !llvm.loop !2614

141:                                              ; preds = %126, %131, %40
  %142 = phi double [ 0.000000e+00, %40 ], [ %127, %126 ], [ %137, %131 ], !dbg !2554
  call void @llvm.dbg.value(metadata double %142, metadata !376, metadata !DIExpression()), !dbg !2554
  call void @llvm.dbg.value(metadata double 0.000000e+00, metadata !377, metadata !DIExpression()), !dbg !2554
  %143 = fadd double %142, 0.000000e+00, !dbg !2615
  %144 = fmul double %143, 5.000000e-01, !dbg !2616
  call void @llvm.dbg.value(metadata double %144, metadata !378, metadata !DIExpression()), !dbg !2554
  %145 = load i64, i64* %15, align 8, !dbg !2617, !tbaa !1750
  %146 = icmp sgt i64 %145, %2, !dbg !2618
  br i1 %146, label %214, label %147, !dbg !2619

147:                                              ; preds = %141
  call void @llvm.dbg.value(metadata i64 %21, metadata !389, metadata !DIExpression()), !dbg !2620
  br i1 %27, label %148, label %201, !dbg !2621

148:                                              ; preds = %147
  %149 = getelementptr inbounds %struct.Points, %struct.Points* %0, i64 0, i32 2, !dbg !2622
  %150 = load %struct.Point*, %struct.Point** %149, align 8, !dbg !2622, !tbaa !1764
  %151 = mul i64 %19, %20, !dbg !2621
  %152 = sub i64 %25, %151, !dbg !2621
  %153 = and i64 %152, 1, !dbg !2621
  %154 = icmp eq i64 %153, 0, !dbg !2621
  br i1 %154, label %159, label %155, !dbg !2621

155:                                              ; preds = %148
  call void @llvm.dbg.value(metadata i64 %21, metadata !389, metadata !DIExpression()), !dbg !2620
  %156 = getelementptr inbounds %struct.Point, %struct.Point* %150, i64 %21, i32 2, !dbg !2625
  store i64 %21, i64* %156, align 8, !dbg !2626, !tbaa !1885
  %157 = getelementptr inbounds %struct.Point, %struct.Point* %150, i64 %21, i32 3, !dbg !2627
  store float 0.000000e+00, float* %157, align 8, !dbg !2628, !tbaa !1882
  %158 = add nsw i64 %21, 1, !dbg !2629
  call void @llvm.dbg.value(metadata i64 %158, metadata !389, metadata !DIExpression()), !dbg !2620
  br label %159, !dbg !2621

159:                                              ; preds = %148, %155
  %160 = phi i64 [ %21, %148 ], [ %158, %155 ]
  %161 = add i64 %151, 1, !dbg !2621
  %162 = icmp eq i64 %25, %161, !dbg !2621
  br i1 %162, label %201, label %202, !dbg !2621

163:                                              ; preds = %163, %53
  %164 = phi i64 [ 0, %53 ], [ %198, %163 ]
  %165 = phi double [ 0.000000e+00, %53 ], [ %197, %163 ]
  %166 = phi i64 [ %54, %53 ], [ %199, %163 ]
  call void @llvm.dbg.value(metadata i64 %164, metadata !387, metadata !DIExpression()), !dbg !2585
  call void @llvm.dbg.value(metadata double %165, metadata !376, metadata !DIExpression()), !dbg !2554
  %167 = getelementptr inbounds double, double* %48, i64 %164, !dbg !2611
  %168 = load double, double* %167, align 8, !dbg !2611, !tbaa !2020
  %169 = fadd double %165, %168, !dbg !2612
  call void @llvm.dbg.value(metadata double %169, metadata !376, metadata !DIExpression()), !dbg !2554
  %170 = or i64 %164, 1, !dbg !2613
  call void @llvm.dbg.value(metadata i64 %170, metadata !387, metadata !DIExpression()), !dbg !2585
  %171 = getelementptr inbounds double, double* %48, i64 %170, !dbg !2611
  %172 = load double, double* %171, align 8, !dbg !2611, !tbaa !2020
  %173 = fadd double %169, %172, !dbg !2612
  call void @llvm.dbg.value(metadata double %173, metadata !376, metadata !DIExpression()), !dbg !2554
  %174 = or i64 %164, 2, !dbg !2613
  call void @llvm.dbg.value(metadata i64 %174, metadata !387, metadata !DIExpression()), !dbg !2585
  %175 = getelementptr inbounds double, double* %48, i64 %174, !dbg !2611
  %176 = load double, double* %175, align 8, !dbg !2611, !tbaa !2020
  %177 = fadd double %173, %176, !dbg !2612
  call void @llvm.dbg.value(metadata double %177, metadata !376, metadata !DIExpression()), !dbg !2554
  %178 = or i64 %164, 3, !dbg !2613
  call void @llvm.dbg.value(metadata i64 %178, metadata !387, metadata !DIExpression()), !dbg !2585
  %179 = getelementptr inbounds double, double* %48, i64 %178, !dbg !2611
  %180 = load double, double* %179, align 8, !dbg !2611, !tbaa !2020
  %181 = fadd double %177, %180, !dbg !2612
  call void @llvm.dbg.value(metadata double %181, metadata !376, metadata !DIExpression()), !dbg !2554
  %182 = or i64 %164, 4, !dbg !2613
  call void @llvm.dbg.value(metadata i64 %182, metadata !387, metadata !DIExpression()), !dbg !2585
  %183 = getelementptr inbounds double, double* %48, i64 %182, !dbg !2611
  %184 = load double, double* %183, align 8, !dbg !2611, !tbaa !2020
  %185 = fadd double %181, %184, !dbg !2612
  call void @llvm.dbg.value(metadata double %185, metadata !376, metadata !DIExpression()), !dbg !2554
  %186 = or i64 %164, 5, !dbg !2613
  call void @llvm.dbg.value(metadata i64 %186, metadata !387, metadata !DIExpression()), !dbg !2585
  %187 = getelementptr inbounds double, double* %48, i64 %186, !dbg !2611
  %188 = load double, double* %187, align 8, !dbg !2611, !tbaa !2020
  %189 = fadd double %185, %188, !dbg !2612
  call void @llvm.dbg.value(metadata double %189, metadata !376, metadata !DIExpression()), !dbg !2554
  %190 = or i64 %164, 6, !dbg !2613
  call void @llvm.dbg.value(metadata i64 %190, metadata !387, metadata !DIExpression()), !dbg !2585
  %191 = getelementptr inbounds double, double* %48, i64 %190, !dbg !2611
  %192 = load double, double* %191, align 8, !dbg !2611, !tbaa !2020
  %193 = fadd double %189, %192, !dbg !2612
  call void @llvm.dbg.value(metadata double %193, metadata !376, metadata !DIExpression()), !dbg !2554
  %194 = or i64 %164, 7, !dbg !2613
  call void @llvm.dbg.value(metadata i64 %194, metadata !387, metadata !DIExpression()), !dbg !2585
  %195 = getelementptr inbounds double, double* %48, i64 %194, !dbg !2611
  %196 = load double, double* %195, align 8, !dbg !2611, !tbaa !2020
  %197 = fadd double %193, %196, !dbg !2612
  call void @llvm.dbg.value(metadata double %197, metadata !376, metadata !DIExpression()), !dbg !2554
  %198 = add nuw nsw i64 %164, 8, !dbg !2613
  call void @llvm.dbg.value(metadata i64 %198, metadata !387, metadata !DIExpression()), !dbg !2585
  %199 = add i64 %166, -8, !dbg !2589
  %200 = icmp eq i64 %199, 0, !dbg !2589
  br i1 %200, label %126, label %163, !dbg !2589, !llvm.loop !2630

201:                                              ; preds = %159, %202, %147
  call void @llvm.dbg.value(metadata double 0.000000e+00, metadata !374, metadata !DIExpression()), !dbg !2554
  br i1 %9, label %211, label %428, !dbg !2632

202:                                              ; preds = %159, %202
  %203 = phi i64 [ %209, %202 ], [ %160, %159 ]
  call void @llvm.dbg.value(metadata i64 %203, metadata !389, metadata !DIExpression()), !dbg !2620
  %204 = getelementptr inbounds %struct.Point, %struct.Point* %150, i64 %203, i32 2, !dbg !2625
  store i64 %203, i64* %204, align 8, !dbg !2626, !tbaa !1885
  %205 = getelementptr inbounds %struct.Point, %struct.Point* %150, i64 %203, i32 3, !dbg !2627
  store float 0.000000e+00, float* %205, align 8, !dbg !2628, !tbaa !1882
  %206 = add nsw i64 %203, 1, !dbg !2629
  call void @llvm.dbg.value(metadata i64 %206, metadata !389, metadata !DIExpression()), !dbg !2620
  %207 = getelementptr inbounds %struct.Point, %struct.Point* %150, i64 %206, i32 2, !dbg !2625
  store i64 %206, i64* %207, align 8, !dbg !2626, !tbaa !1885
  %208 = getelementptr inbounds %struct.Point, %struct.Point* %150, i64 %206, i32 3, !dbg !2627
  store float 0.000000e+00, float* %208, align 8, !dbg !2628, !tbaa !1882
  %209 = add nsw i64 %203, 2, !dbg !2629
  call void @llvm.dbg.value(metadata i64 %209, metadata !389, metadata !DIExpression()), !dbg !2620
  %210 = icmp eq i64 %209, %25, !dbg !2633
  br i1 %210, label %201, label %202, !dbg !2621, !llvm.loop !2634

211:                                              ; preds = %201
  %212 = load i8*, i8** bitcast (double** @_ZZ8pkmedianP6PointsllPliP17pthread_barrier_tE4hizs to i8**), align 8, !dbg !2636, !tbaa !1768
  tail call void @free(i8* %212) #15, !dbg !2639
  %213 = load i64, i64* @_ZZ8pkmedianP6PointsllPliP17pthread_barrier_tE1k, align 8, !dbg !2640, !tbaa !1769
  store i64 %213, i64* %3, align 8, !dbg !2641, !tbaa !1769
  br label %428, !dbg !2642

214:                                              ; preds = %141
  br i1 %9, label %215, label %240, !dbg !2643

215:                                              ; preds = %214
  call void @llvm.dbg.value(metadata %struct.Points* %0, metadata !1740, metadata !DIExpression()) #15, !dbg !2644
  %216 = bitcast %struct.Point* %8 to i8*, !dbg !2645
  call void @llvm.lifetime.start.p0i8(i64 32, i8* nonnull %216), !dbg !2645
  call void @llvm.dbg.value(metadata i64 0, metadata !1741, metadata !DIExpression()) #15, !dbg !2644
  %217 = icmp sgt i64 %145, 1, !dbg !2646
  br i1 %217, label %218, label %239, !dbg !2647

218:                                              ; preds = %215
  %219 = getelementptr inbounds %struct.Points, %struct.Points* %0, i64 0, i32 2, !dbg !2648
  br label %220, !dbg !2647

220:                                              ; preds = %220, %218
  %221 = phi i64 [ 0, %218 ], [ %235, %220 ]
  call void @llvm.dbg.value(metadata i64 %221, metadata !1741, metadata !DIExpression()) #15, !dbg !2644
  %222 = tail call i64 @lrand48() #15, !dbg !2649
  %223 = load i64, i64* %15, align 8, !dbg !2650, !tbaa !1750
  %224 = sub nsw i64 %223, %221, !dbg !2651
  %225 = srem i64 %222, %224, !dbg !2652
  %226 = add nsw i64 %225, %221, !dbg !2653
  call void @llvm.dbg.value(metadata i64 %226, metadata !1742, metadata !DIExpression()) #15, !dbg !2644
  %227 = load %struct.Point*, %struct.Point** %219, align 8, !dbg !2654, !tbaa !1764
  %228 = getelementptr inbounds %struct.Point, %struct.Point* %227, i64 %221, !dbg !2655
  %229 = bitcast %struct.Point* %228 to i8*, !dbg !2656
  call void @llvm.memcpy.p0i8.p0i8.i64(i8* nonnull align 8 dereferenceable(32) %216, i8* nonnull align 8 dereferenceable(32) %229, i64 32, i1 false) #15, !dbg !2656, !tbaa.struct !1767
  %230 = getelementptr inbounds %struct.Point, %struct.Point* %227, i64 %226, !dbg !2657
  %231 = bitcast %struct.Point* %230 to i8*, !dbg !2658
  tail call void @llvm.memcpy.p0i8.p0i8.i64(i8* nonnull align 8 dereferenceable(32) %229, i8* nonnull align 8 dereferenceable(32) %231, i64 32, i1 false) #15, !dbg !2658, !tbaa.struct !1767
  %232 = load %struct.Point*, %struct.Point** %219, align 8, !dbg !2659, !tbaa !1764
  %233 = getelementptr inbounds %struct.Point, %struct.Point* %232, i64 %226, !dbg !2660
  %234 = bitcast %struct.Point* %233 to i8*, !dbg !2661
  call void @llvm.memcpy.p0i8.p0i8.i64(i8* nonnull align 8 dereferenceable(32) %234, i8* nonnull align 8 dereferenceable(32) %216, i64 32, i1 false) #15, !dbg !2661, !tbaa.struct !1767
  %235 = add nuw nsw i64 %221, 1, !dbg !2662
  call void @llvm.dbg.value(metadata i64 %235, metadata !1741, metadata !DIExpression()) #15, !dbg !2644
  %236 = load i64, i64* %15, align 8, !dbg !2663, !tbaa !1750
  %237 = add nsw i64 %236, -1, !dbg !2664
  %238 = icmp slt i64 %235, %237, !dbg !2646
  br i1 %238, label %220, label %239, !dbg !2647, !llvm.loop !2665

239:                                              ; preds = %220, %215
  call void @llvm.lifetime.end.p0i8(i64 32, i8* nonnull %216), !dbg !2667
  br label %240, !dbg !2668

240:                                              ; preds = %239, %214
  %241 = fptrunc double %144 to float, !dbg !2669
  %242 = tail call float @_Z7pspeedyP6PointsfPliP17pthread_barrier_t(%struct.Points* nonnull %0, float %241, i64* nonnull @_ZZ8pkmedianP6PointsllPliP17pthread_barrier_tE1k, i32 %4, %union.pthread_barrier_t* %5), !dbg !2670
  call void @llvm.dbg.value(metadata double undef, metadata !374, metadata !DIExpression()), !dbg !2554
  call void @llvm.dbg.value(metadata i32 0, metadata !373, metadata !DIExpression()), !dbg !2554
  %243 = load i64, i64* @_ZZ8pkmedianP6PointsllPliP17pthread_barrier_tE1k, align 8, !dbg !2671, !tbaa !1769
  %244 = icmp slt i64 %243, %1, !dbg !2672
  br i1 %244, label %245, label %248, !dbg !2673

245:                                              ; preds = %240
  %246 = tail call float @_Z7pspeedyP6PointsfPliP17pthread_barrier_t(%struct.Points* nonnull %0, float %241, i64* nonnull @_ZZ8pkmedianP6PointsllPliP17pthread_barrier_tE1k, i32 %4, %union.pthread_barrier_t* %5), !dbg !2674
  call void @llvm.dbg.value(metadata i32 1, metadata !373, metadata !DIExpression()), !dbg !2554
  call void @llvm.dbg.value(metadata double undef, metadata !374, metadata !DIExpression()), !dbg !2554
  %247 = load i64, i64* @_ZZ8pkmedianP6PointsllPliP17pthread_barrier_tE1k, align 8, !dbg !2676, !tbaa !1769
  br label %248, !dbg !2676

248:                                              ; preds = %245, %240
  %249 = phi i64 [ %243, %240 ], [ %247, %245 ], !dbg !2676
  %250 = phi float [ %242, %240 ], [ %246, %245 ]
  %251 = phi i32 [ 0, %240 ], [ 1, %245 ], !dbg !2554
  call void @llvm.dbg.value(metadata i32 %251, metadata !373, metadata !DIExpression()), !dbg !2554
  call void @llvm.dbg.value(metadata double undef, metadata !374, metadata !DIExpression()), !dbg !2554
  call void @llvm.dbg.value(metadata double %142, metadata !376, metadata !DIExpression()), !dbg !2554
  call void @llvm.dbg.value(metadata double %144, metadata !378, metadata !DIExpression()), !dbg !2554
  %252 = icmp slt i64 %249, %1, !dbg !2677
  br i1 %252, label %253, label %295, !dbg !2678

253:                                              ; preds = %248
  %254 = bitcast %struct.Point* %7 to i8*, !dbg !2679
  %255 = getelementptr inbounds %struct.Points, %struct.Points* %0, i64 0, i32 2, !dbg !2680
  br label %256, !dbg !2678

256:                                              ; preds = %253, %288
  %257 = phi i32 [ %251, %253 ], [ %292, %288 ]
  %258 = phi double [ %142, %253 ], [ %264, %288 ]
  %259 = phi double [ %144, %253 ], [ %263, %288 ]
  call void @llvm.dbg.value(metadata i32 %257, metadata !373, metadata !DIExpression()), !dbg !2554
  call void @llvm.dbg.value(metadata double %258, metadata !376, metadata !DIExpression()), !dbg !2554
  call void @llvm.dbg.value(metadata double %259, metadata !378, metadata !DIExpression()), !dbg !2554
  %260 = icmp sgt i32 %257, 0, !dbg !2681
  %261 = fadd double %259, 0.000000e+00, !dbg !2683
  %262 = fmul double %261, 5.000000e-01, !dbg !2683
  %263 = select i1 %260, double %262, double %259, !dbg !2683
  %264 = select i1 %260, double %259, double %258, !dbg !2683
  call void @llvm.dbg.value(metadata i32 undef, metadata !373, metadata !DIExpression()), !dbg !2554
  call void @llvm.dbg.value(metadata double %264, metadata !376, metadata !DIExpression()), !dbg !2554
  call void @llvm.dbg.value(metadata double %263, metadata !378, metadata !DIExpression()), !dbg !2554
  br i1 %9, label %265, label %288, !dbg !2684

265:                                              ; preds = %256
  call void @llvm.dbg.value(metadata %struct.Points* %0, metadata !1740, metadata !DIExpression()) #15, !dbg !2679
  call void @llvm.lifetime.start.p0i8(i64 32, i8* nonnull %254), !dbg !2685
  call void @llvm.dbg.value(metadata i64 0, metadata !1741, metadata !DIExpression()) #15, !dbg !2679
  %266 = load i64, i64* %15, align 8, !dbg !2686, !tbaa !1750
  %267 = icmp sgt i64 %266, 1, !dbg !2687
  br i1 %267, label %268, label %287, !dbg !2688

268:                                              ; preds = %265, %268
  %269 = phi i64 [ %283, %268 ], [ 0, %265 ]
  call void @llvm.dbg.value(metadata i64 %269, metadata !1741, metadata !DIExpression()) #15, !dbg !2679
  %270 = tail call i64 @lrand48() #15, !dbg !2689
  %271 = load i64, i64* %15, align 8, !dbg !2690, !tbaa !1750
  %272 = sub nsw i64 %271, %269, !dbg !2691
  %273 = srem i64 %270, %272, !dbg !2692
  %274 = add nsw i64 %273, %269, !dbg !2693
  call void @llvm.dbg.value(metadata i64 %274, metadata !1742, metadata !DIExpression()) #15, !dbg !2679
  %275 = load %struct.Point*, %struct.Point** %255, align 8, !dbg !2694, !tbaa !1764
  %276 = getelementptr inbounds %struct.Point, %struct.Point* %275, i64 %269, !dbg !2695
  %277 = bitcast %struct.Point* %276 to i8*, !dbg !2696
  call void @llvm.memcpy.p0i8.p0i8.i64(i8* nonnull align 8 dereferenceable(32) %254, i8* nonnull align 8 dereferenceable(32) %277, i64 32, i1 false) #15, !dbg !2696, !tbaa.struct !1767
  %278 = getelementptr inbounds %struct.Point, %struct.Point* %275, i64 %274, !dbg !2697
  %279 = bitcast %struct.Point* %278 to i8*, !dbg !2698
  tail call void @llvm.memcpy.p0i8.p0i8.i64(i8* nonnull align 8 dereferenceable(32) %277, i8* nonnull align 8 dereferenceable(32) %279, i64 32, i1 false) #15, !dbg !2698, !tbaa.struct !1767
  %280 = load %struct.Point*, %struct.Point** %255, align 8, !dbg !2699, !tbaa !1764
  %281 = getelementptr inbounds %struct.Point, %struct.Point* %280, i64 %274, !dbg !2700
  %282 = bitcast %struct.Point* %281 to i8*, !dbg !2701
  call void @llvm.memcpy.p0i8.p0i8.i64(i8* nonnull align 8 dereferenceable(32) %282, i8* nonnull align 8 dereferenceable(32) %254, i64 32, i1 false) #15, !dbg !2701, !tbaa.struct !1767
  %283 = add nuw nsw i64 %269, 1, !dbg !2702
  call void @llvm.dbg.value(metadata i64 %283, metadata !1741, metadata !DIExpression()) #15, !dbg !2679
  %284 = load i64, i64* %15, align 8, !dbg !2686, !tbaa !1750
  %285 = add nsw i64 %284, -1, !dbg !2703
  %286 = icmp slt i64 %283, %285, !dbg !2687
  br i1 %286, label %268, label %287, !dbg !2688, !llvm.loop !2704

287:                                              ; preds = %268, %265
  call void @llvm.lifetime.end.p0i8(i64 32, i8* nonnull %254), !dbg !2706
  br label %288, !dbg !2707

288:                                              ; preds = %287, %256
  %289 = fptrunc double %263 to float, !dbg !2708
  %290 = tail call float @_Z7pspeedyP6PointsfPliP17pthread_barrier_t(%struct.Points* %0, float %289, i64* nonnull @_ZZ8pkmedianP6PointsllPliP17pthread_barrier_tE1k, i32 %4, %union.pthread_barrier_t* %5), !dbg !2709
  call void @llvm.dbg.value(metadata double undef, metadata !374, metadata !DIExpression()), !dbg !2554
  %291 = add nsw i32 %257, 1, !dbg !2710
  %292 = select i1 %260, i32 1, i32 %291, !dbg !2710
  call void @llvm.dbg.value(metadata i32 %292, metadata !373, metadata !DIExpression()), !dbg !2554
  call void @llvm.dbg.value(metadata double %264, metadata !376, metadata !DIExpression()), !dbg !2554
  call void @llvm.dbg.value(metadata double %263, metadata !378, metadata !DIExpression()), !dbg !2554
  %293 = load i64, i64* @_ZZ8pkmedianP6PointsllPliP17pthread_barrier_tE1k, align 8, !dbg !2676, !tbaa !1769
  %294 = icmp slt i64 %293, %1, !dbg !2677
  br i1 %294, label %256, label %295, !dbg !2678, !llvm.loop !2711

295:                                              ; preds = %288, %248
  %296 = phi double [ %144, %248 ], [ %263, %288 ], !dbg !2554
  %297 = phi double [ %142, %248 ], [ %264, %288 ], !dbg !2554
  %298 = phi float [ %250, %248 ], [ %290, %288 ]
  %299 = fpext float %298 to double, !dbg !2554
  call void @llvm.dbg.value(metadata double %296, metadata !378, metadata !DIExpression()), !dbg !2554
  call void @llvm.dbg.value(metadata double %297, metadata !376, metadata !DIExpression()), !dbg !2554
  br i1 %9, label %300, label %347, !dbg !2713

300:                                              ; preds = %295
  %301 = trunc i64 %1 to i32, !dbg !2714
  %302 = tail call i32 @_Z19selectfeasible_fastP6PointsPPiiiP17pthread_barrier_t(%struct.Points* %0, i32** nonnull @_ZZ8pkmedianP6PointsllPliP17pthread_barrier_tE8feasible, i32 %301, i32 undef, %union.pthread_barrier_t* undef), !dbg !2715
  store i32 %302, i32* @_ZZ8pkmedianP6PointsllPliP17pthread_barrier_tE11numfeasible, align 4, !dbg !2716, !tbaa !1801
  call void @llvm.dbg.value(metadata i32 0, metadata !393, metadata !DIExpression()), !dbg !2717
  %303 = load i64, i64* %15, align 8, !dbg !2718, !tbaa !1750
  %304 = icmp sgt i64 %303, 0, !dbg !2720
  br i1 %304, label %305, label %347, !dbg !2721

305:                                              ; preds = %300
  %306 = load i8*, i8** @_ZL9is_center, align 8, !dbg !2722, !tbaa !1768
  %307 = getelementptr inbounds %struct.Points, %struct.Points* %0, i64 0, i32 2, !dbg !2722
  %308 = load %struct.Point*, %struct.Point** %307, align 8, !dbg !2722, !tbaa !1764
  %309 = add i64 %303, -1, !dbg !2721
  %310 = and i64 %303, 3, !dbg !2721
  %311 = icmp ult i64 %309, 3, !dbg !2721
  br i1 %311, label %335, label %312, !dbg !2721

312:                                              ; preds = %305
  %313 = sub i64 %303, %310, !dbg !2721
  br label %314, !dbg !2721

314:                                              ; preds = %314, %312
  %315 = phi i64 [ 0, %312 ], [ %332, %314 ]
  %316 = phi i64 [ %313, %312 ], [ %333, %314 ]
  call void @llvm.dbg.value(metadata i64 %315, metadata !393, metadata !DIExpression()), !dbg !2717
  %317 = getelementptr inbounds %struct.Point, %struct.Point* %308, i64 %315, i32 2, !dbg !2724
  %318 = load i64, i64* %317, align 8, !dbg !2724, !tbaa !1885
  %319 = getelementptr inbounds i8, i8* %306, i64 %318, !dbg !2725
  store i8 1, i8* %319, align 1, !dbg !2726, !tbaa !2099
  %320 = or i64 %315, 1, !dbg !2727
  call void @llvm.dbg.value(metadata i64 %320, metadata !393, metadata !DIExpression()), !dbg !2717
  %321 = getelementptr inbounds %struct.Point, %struct.Point* %308, i64 %320, i32 2, !dbg !2724
  %322 = load i64, i64* %321, align 8, !dbg !2724, !tbaa !1885
  %323 = getelementptr inbounds i8, i8* %306, i64 %322, !dbg !2725
  store i8 1, i8* %323, align 1, !dbg !2726, !tbaa !2099
  %324 = or i64 %315, 2, !dbg !2727
  call void @llvm.dbg.value(metadata i64 %324, metadata !393, metadata !DIExpression()), !dbg !2717
  %325 = getelementptr inbounds %struct.Point, %struct.Point* %308, i64 %324, i32 2, !dbg !2724
  %326 = load i64, i64* %325, align 8, !dbg !2724, !tbaa !1885
  %327 = getelementptr inbounds i8, i8* %306, i64 %326, !dbg !2725
  store i8 1, i8* %327, align 1, !dbg !2726, !tbaa !2099
  %328 = or i64 %315, 3, !dbg !2727
  call void @llvm.dbg.value(metadata i64 %328, metadata !393, metadata !DIExpression()), !dbg !2717
  %329 = getelementptr inbounds %struct.Point, %struct.Point* %308, i64 %328, i32 2, !dbg !2724
  %330 = load i64, i64* %329, align 8, !dbg !2724, !tbaa !1885
  %331 = getelementptr inbounds i8, i8* %306, i64 %330, !dbg !2725
  store i8 1, i8* %331, align 1, !dbg !2726, !tbaa !2099
  %332 = add nuw nsw i64 %315, 4, !dbg !2727
  call void @llvm.dbg.value(metadata i64 %332, metadata !393, metadata !DIExpression()), !dbg !2717
  %333 = add i64 %316, -4, !dbg !2721
  %334 = icmp eq i64 %333, 0, !dbg !2721
  br i1 %334, label %335, label %314, !dbg !2721, !llvm.loop !2728

335:                                              ; preds = %314, %305
  %336 = phi i64 [ 0, %305 ], [ %332, %314 ]
  %337 = icmp eq i64 %310, 0, !dbg !2721
  br i1 %337, label %347, label %338, !dbg !2721

338:                                              ; preds = %335, %338
  %339 = phi i64 [ %344, %338 ], [ %336, %335 ]
  %340 = phi i64 [ %345, %338 ], [ %310, %335 ]
  call void @llvm.dbg.value(metadata i64 %339, metadata !393, metadata !DIExpression()), !dbg !2717
  %341 = getelementptr inbounds %struct.Point, %struct.Point* %308, i64 %339, i32 2, !dbg !2724
  %342 = load i64, i64* %341, align 8, !dbg !2724, !tbaa !1885
  %343 = getelementptr inbounds i8, i8* %306, i64 %342, !dbg !2725
  store i8 1, i8* %343, align 1, !dbg !2726, !tbaa !2099
  %344 = add nuw nsw i64 %339, 1, !dbg !2727
  call void @llvm.dbg.value(metadata i64 %344, metadata !393, metadata !DIExpression()), !dbg !2717
  %345 = add i64 %340, -1, !dbg !2721
  %346 = icmp eq i64 %345, 0, !dbg !2721
  br i1 %346, label %347, label %338, !dbg !2721, !llvm.loop !2730

347:                                              ; preds = %335, %338, %300, %295
  %348 = tail call i32 @pthread_barrier_wait(%union.pthread_barrier_t* %5) #15, !dbg !2731
  %349 = mul nsw i64 %2, 3, !dbg !2732
  %350 = sitofp i64 %349 to double, !dbg !2732
  %351 = sitofp i64 %2 to double, !dbg !2732
  %352 = fmul double %351, 1.100000e+00, !dbg !2734
  %353 = sitofp i64 %1 to double, !dbg !2734
  %354 = fmul double %353, 9.000000e-01, !dbg !2734
  %355 = add nsw i64 %2, 2, !dbg !2734
  %356 = add nsw i64 %1, -2, !dbg !2734
  br label %357, !dbg !2736

357:                                              ; preds = %419, %347
  %358 = phi double [ 0.000000e+00, %347 ], [ %400, %419 ], !dbg !2554
  %359 = phi double [ %296, %347 ], [ %412, %419 ], !dbg !2554
  %360 = phi double [ %297, %347 ], [ %413, %419 ], !dbg !2554
  %361 = phi double [ %299, %347 ], [ %414, %419 ], !dbg !2554
  call void @llvm.dbg.value(metadata double %361, metadata !374, metadata !DIExpression()), !dbg !2554
  call void @llvm.dbg.value(metadata double %360, metadata !376, metadata !DIExpression()), !dbg !2554
  call void @llvm.dbg.value(metadata double %359, metadata !378, metadata !DIExpression()), !dbg !2554
  call void @llvm.dbg.value(metadata double %358, metadata !377, metadata !DIExpression()), !dbg !2554
  call void @llvm.dbg.value(metadata double %361, metadata !375, metadata !DIExpression()), !dbg !2554
  %362 = load i32*, i32** @_ZZ8pkmedianP6PointsllPliP17pthread_barrier_tE8feasible, align 8, !dbg !2737, !tbaa !1768
  %363 = load i32, i32* @_ZZ8pkmedianP6PointsllPliP17pthread_barrier_tE11numfeasible, align 4, !dbg !2738, !tbaa !1801
  %364 = fptrunc double %359 to float, !dbg !2739
  %365 = tail call double @log(double %351) #15, !dbg !2740
  %366 = fmul double %365, %350, !dbg !2741
  %367 = fptosi double %366 to i64, !dbg !2742
  %368 = tail call float @_Z3pFLP6PointsPiifPldlfiP17pthread_barrier_t(%struct.Points* %0, i32* %362, i32 %363, float %364, i64* nonnull @_ZZ8pkmedianP6PointsllPliP17pthread_barrier_tE1k, double %361, i64 %367, float 0x3FB99999A0000000, i32 %4, %union.pthread_barrier_t* %5), !dbg !2743
  %369 = fpext float %368 to double, !dbg !2743
  call void @llvm.dbg.value(metadata double %369, metadata !374, metadata !DIExpression()), !dbg !2554
  %370 = load i64, i64* @_ZZ8pkmedianP6PointsllPliP17pthread_barrier_tE1k, align 8, !dbg !2744, !tbaa !1769
  %371 = sitofp i64 %370 to double, !dbg !2744
  %372 = fcmp ult double %352, %371, !dbg !2745
  %373 = fcmp ugt double %354, %371, !dbg !2746
  %374 = or i1 %372, %373, !dbg !2747
  br i1 %374, label %375, label %379, !dbg !2747

375:                                              ; preds = %357
  %376 = icmp sgt i64 %370, %355, !dbg !2748
  %377 = icmp slt i64 %370, %356, !dbg !2749
  %378 = or i1 %376, %377, !dbg !2750
  br i1 %378, label %388, label %379, !dbg !2750

379:                                              ; preds = %357, %375
  %380 = load i32*, i32** @_ZZ8pkmedianP6PointsllPliP17pthread_barrier_tE8feasible, align 8, !dbg !2751, !tbaa !1768
  %381 = load i32, i32* @_ZZ8pkmedianP6PointsllPliP17pthread_barrier_tE11numfeasible, align 4, !dbg !2753, !tbaa !1801
  %382 = tail call double @log(double %351) #15, !dbg !2754
  %383 = fmul double %382, %350, !dbg !2755
  %384 = fptosi double %383 to i64, !dbg !2756
  %385 = tail call float @_Z3pFLP6PointsPiifPldlfiP17pthread_barrier_t(%struct.Points* %0, i32* %380, i32 %381, float %364, i64* nonnull @_ZZ8pkmedianP6PointsllPliP17pthread_barrier_tE1k, double %369, i64 %384, float 0x3F50624DE0000000, i32 %4, %union.pthread_barrier_t* %5), !dbg !2757
  %386 = fpext float %385 to double, !dbg !2757
  call void @llvm.dbg.value(metadata double %386, metadata !374, metadata !DIExpression()), !dbg !2554
  %387 = load i64, i64* @_ZZ8pkmedianP6PointsllPliP17pthread_barrier_tE1k, align 8, !dbg !2758, !tbaa !1769
  br label %388, !dbg !2760

388:                                              ; preds = %375, %379
  %389 = phi i64 [ %387, %379 ], [ %370, %375 ], !dbg !2758
  %390 = phi double [ %386, %379 ], [ %369, %375 ], !dbg !2732
  call void @llvm.dbg.value(metadata double %390, metadata !374, metadata !DIExpression()), !dbg !2554
  %391 = icmp sgt i64 %389, %2, !dbg !2761
  br i1 %391, label %392, label %399, !dbg !2762

392:                                              ; preds = %388
  call void @llvm.dbg.value(metadata double %359, metadata !377, metadata !DIExpression()), !dbg !2554
  %393 = fadd double %359, %360, !dbg !2763
  %394 = fmul double %393, 5.000000e-01, !dbg !2765
  call void @llvm.dbg.value(metadata double %394, metadata !378, metadata !DIExpression()), !dbg !2554
  %395 = fsub double %394, %359, !dbg !2766
  %396 = sitofp i64 %389 to double, !dbg !2767
  %397 = fmul double %395, %396, !dbg !2768
  %398 = fadd double %390, %397, !dbg !2769
  call void @llvm.dbg.value(metadata double %398, metadata !374, metadata !DIExpression()), !dbg !2554
  br label %399, !dbg !2770

399:                                              ; preds = %392, %388
  %400 = phi double [ %359, %392 ], [ %358, %388 ], !dbg !2554
  %401 = phi double [ %394, %392 ], [ %359, %388 ], !dbg !2554
  %402 = phi double [ %398, %392 ], [ %390, %388 ], !dbg !2732
  call void @llvm.dbg.value(metadata double %402, metadata !374, metadata !DIExpression()), !dbg !2554
  call void @llvm.dbg.value(metadata double %401, metadata !378, metadata !DIExpression()), !dbg !2554
  call void @llvm.dbg.value(metadata double %400, metadata !377, metadata !DIExpression()), !dbg !2554
  %403 = icmp slt i64 %389, %1, !dbg !2771
  br i1 %403, label %404, label %411, !dbg !2773

404:                                              ; preds = %399
  call void @llvm.dbg.value(metadata double %401, metadata !376, metadata !DIExpression()), !dbg !2554
  %405 = fadd double %400, %401, !dbg !2774
  %406 = fmul double %405, 5.000000e-01, !dbg !2776
  call void @llvm.dbg.value(metadata double %406, metadata !378, metadata !DIExpression()), !dbg !2554
  %407 = fsub double %406, %401, !dbg !2777
  %408 = sitofp i64 %389 to double, !dbg !2778
  %409 = fmul double %407, %408, !dbg !2779
  %410 = fadd double %402, %409, !dbg !2780
  call void @llvm.dbg.value(metadata double %410, metadata !374, metadata !DIExpression()), !dbg !2554
  br label %411, !dbg !2781

411:                                              ; preds = %404, %399
  %412 = phi double [ %406, %404 ], [ %401, %399 ], !dbg !2732
  %413 = phi double [ %401, %404 ], [ %360, %399 ], !dbg !2554
  %414 = phi double [ %410, %404 ], [ %402, %399 ], !dbg !2732
  call void @llvm.dbg.value(metadata double %414, metadata !374, metadata !DIExpression()), !dbg !2554
  call void @llvm.dbg.value(metadata double %413, metadata !376, metadata !DIExpression()), !dbg !2554
  call void @llvm.dbg.value(metadata double %412, metadata !378, metadata !DIExpression()), !dbg !2554
  %415 = or i1 %391, %403, !dbg !2782
  %416 = fmul double %413, 0x3FEFF7CED916872B, !dbg !2784
  %417 = fcmp ult double %400, %416, !dbg !2785
  %418 = and i1 %415, %417, !dbg !2782
  br i1 %418, label %419, label %421, !dbg !2782

419:                                              ; preds = %411
  %420 = tail call i32 @pthread_barrier_wait(%union.pthread_barrier_t* %5) #15, !dbg !2786
  br label %357, !dbg !2736, !llvm.loop !2787

421:                                              ; preds = %411
  call void @llvm.dbg.value(metadata double %414, metadata !374, metadata !DIExpression()), !dbg !2554
  call void @llvm.dbg.value(metadata double %414, metadata !374, metadata !DIExpression()), !dbg !2554
  call void @llvm.dbg.value(metadata double %414, metadata !374, metadata !DIExpression()), !dbg !2554
  call void @llvm.dbg.value(metadata double %414, metadata !374, metadata !DIExpression()), !dbg !2554
  call void @llvm.dbg.value(metadata double %414, metadata !374, metadata !DIExpression()), !dbg !2554
  call void @llvm.dbg.value(metadata double %414, metadata !374, metadata !DIExpression()), !dbg !2554
  br i1 %9, label %422, label %426, !dbg !2789

422:                                              ; preds = %421
  %423 = load i8*, i8** bitcast (i32** @_ZZ8pkmedianP6PointsllPliP17pthread_barrier_tE8feasible to i8**), align 8, !dbg !2790, !tbaa !1768
  tail call void @free(i8* %423) #15, !dbg !2793
  %424 = load i8*, i8** bitcast (double** @_ZZ8pkmedianP6PointsllPliP17pthread_barrier_tE4hizs to i8**), align 8, !dbg !2794, !tbaa !1768
  tail call void @free(i8* %424) #15, !dbg !2795
  %425 = load i64, i64* @_ZZ8pkmedianP6PointsllPliP17pthread_barrier_tE1k, align 8, !dbg !2796, !tbaa !1769
  store i64 %425, i64* %3, align 8, !dbg !2797, !tbaa !1769
  br label %426, !dbg !2798

426:                                              ; preds = %422, %421
  %427 = fptrunc double %414 to float, !dbg !2799
  br label %428, !dbg !2800

428:                                              ; preds = %201, %211, %426
  %429 = phi float [ %427, %426 ], [ 0.000000e+00, %211 ], [ 0.000000e+00, %201 ], !dbg !2554
  ret float %429, !dbg !2801
}

; Function Attrs: nofree nounwind
declare dso_local noalias i8* @calloc(i64, i64) local_unnamed_addr #3

; Function Attrs: nofree norecurse nounwind uwtable
define dso_local i32 @_Z11contcentersP6Points(%struct.Points* nocapture readonly %0) local_unnamed_addr #8 !dbg !2802 {
  call void @llvm.dbg.value(metadata %struct.Points* %0, metadata !2806, metadata !DIExpression()), !dbg !2810
  call void @llvm.dbg.value(metadata i64 0, metadata !2807, metadata !DIExpression()), !dbg !2810
  %2 = getelementptr inbounds %struct.Points, %struct.Points* %0, i64 0, i32 0, !dbg !2811
  %3 = load i64, i64* %2, align 8, !dbg !2811, !tbaa !1750
  %4 = icmp sgt i64 %3, 0, !dbg !2814
  br i1 %4, label %5, label %127, !dbg !2815

5:                                                ; preds = %1
  %6 = getelementptr inbounds %struct.Points, %struct.Points* %0, i64 0, i32 2, !dbg !2816
  %7 = load %struct.Point*, %struct.Point** %6, align 8, !dbg !2816, !tbaa !1764
  %8 = getelementptr inbounds %struct.Points, %struct.Points* %0, i64 0, i32 1, !dbg !2819
  br label %9, !dbg !2815

9:                                                ; preds = %5, %124
  %10 = phi i64 [ 0, %5 ], [ %125, %124 ]
  call void @llvm.dbg.value(metadata i64 %10, metadata !2807, metadata !DIExpression()), !dbg !2810
  %11 = getelementptr inbounds %struct.Point, %struct.Point* %7, i64 %10, i32 2, !dbg !2823
  %12 = load i64, i64* %11, align 8, !dbg !2823, !tbaa !1885
  %13 = icmp eq i64 %12, %10, !dbg !2824
  br i1 %13, label %124, label %14, !dbg !2825

14:                                               ; preds = %9
  %15 = getelementptr inbounds %struct.Point, %struct.Point* %7, i64 %12, i32 0, !dbg !2826
  %16 = load float, float* %15, align 8, !dbg !2826, !tbaa !1878
  %17 = getelementptr inbounds %struct.Point, %struct.Point* %7, i64 %10, i32 0, !dbg !2827
  %18 = load float, float* %17, align 8, !dbg !2827, !tbaa !1878
  %19 = fadd float %16, %18, !dbg !2828
  call void @llvm.dbg.value(metadata float %19, metadata !2809, metadata !DIExpression()), !dbg !2810
  %20 = fdiv float %18, %19, !dbg !2829
  call void @llvm.dbg.value(metadata float %20, metadata !2809, metadata !DIExpression()), !dbg !2810
  call void @llvm.dbg.value(metadata i64 0, metadata !2808, metadata !DIExpression()), !dbg !2810
  %21 = load i32, i32* %8, align 8, !dbg !2830, !tbaa !1856
  %22 = icmp sgt i32 %21, 0, !dbg !2831
  br i1 %22, label %23, label %122, !dbg !2832

23:                                               ; preds = %14
  %24 = fpext float %20 to double, !dbg !2833
  %25 = fsub double 1.000000e+00, %24, !dbg !2833
  %26 = getelementptr inbounds %struct.Point, %struct.Point* %7, i64 %12, i32 1, !dbg !2833
  %27 = load float*, float** %26, align 8, !dbg !2833, !tbaa !1826
  %28 = getelementptr inbounds %struct.Point, %struct.Point* %7, i64 %10, i32 1, !dbg !2833
  %29 = load float*, float** %28, align 8, !dbg !2833, !tbaa !1826
  %30 = zext i32 %21 to i64, !dbg !2819
  %31 = icmp ult i32 %21, 4, !dbg !2832
  br i1 %31, label %103, label %32, !dbg !2832

32:                                               ; preds = %23
  %33 = getelementptr float, float* %27, i64 %30, !dbg !2832
  %34 = getelementptr float, float* %29, i64 %30, !dbg !2832
  %35 = icmp ult float* %27, %34, !dbg !2832
  %36 = icmp ult float* %29, %33, !dbg !2832
  %37 = and i1 %35, %36, !dbg !2832
  br i1 %37, label %103, label %38, !dbg !2832

38:                                               ; preds = %32
  %39 = and i64 %30, 4294967292, !dbg !2832
  %40 = insertelement <4 x double> undef, double %25, i32 0, !dbg !2832
  %41 = shufflevector <4 x double> %40, <4 x double> undef, <4 x i32> zeroinitializer, !dbg !2832
  %42 = insertelement <4 x float> undef, float %20, i32 0, !dbg !2832
  %43 = shufflevector <4 x float> %42, <4 x float> undef, <4 x i32> zeroinitializer, !dbg !2832
  %44 = add nsw i64 %39, -4, !dbg !2832
  %45 = lshr exact i64 %44, 2, !dbg !2832
  %46 = add nuw nsw i64 %45, 1, !dbg !2832
  %47 = and i64 %46, 1, !dbg !2832
  %48 = icmp eq i64 %44, 0, !dbg !2832
  br i1 %48, label %84, label %49, !dbg !2832

49:                                               ; preds = %38
  %50 = sub nuw nsw i64 %46, %47, !dbg !2832
  br label %51, !dbg !2832

51:                                               ; preds = %51, %49
  %52 = phi i64 [ 0, %49 ], [ %81, %51 ], !dbg !2835
  %53 = phi i64 [ %50, %49 ], [ %82, %51 ]
  %54 = getelementptr inbounds float, float* %27, i64 %52, !dbg !2836
  %55 = bitcast float* %54 to <4 x float>*, !dbg !2837
  %56 = load <4 x float>, <4 x float>* %55, align 4, !dbg !2837, !tbaa !1725, !alias.scope !2838, !noalias !2841
  %57 = fpext <4 x float> %56 to <4 x double>, !dbg !2837
  %58 = fmul <4 x double> %41, %57, !dbg !2837
  %59 = fptrunc <4 x double> %58 to <4 x float>, !dbg !2837
  %60 = bitcast float* %54 to <4 x float>*, !dbg !2837
  store <4 x float> %59, <4 x float>* %60, align 4, !dbg !2837, !tbaa !1725, !alias.scope !2838, !noalias !2841
  %61 = getelementptr inbounds float, float* %29, i64 %52, !dbg !2843
  %62 = bitcast float* %61 to <4 x float>*, !dbg !2843
  %63 = load <4 x float>, <4 x float>* %62, align 4, !dbg !2843, !tbaa !1725, !alias.scope !2841
  %64 = fmul <4 x float> %43, %63, !dbg !2844
  %65 = fadd <4 x float> %64, %59, !dbg !2845
  %66 = bitcast float* %54 to <4 x float>*, !dbg !2845
  store <4 x float> %65, <4 x float>* %66, align 4, !dbg !2845, !tbaa !1725, !alias.scope !2838, !noalias !2841
  %67 = or i64 %52, 4, !dbg !2835
  %68 = getelementptr inbounds float, float* %27, i64 %67, !dbg !2836
  %69 = bitcast float* %68 to <4 x float>*, !dbg !2837
  %70 = load <4 x float>, <4 x float>* %69, align 4, !dbg !2837, !tbaa !1725, !alias.scope !2838, !noalias !2841
  %71 = fpext <4 x float> %70 to <4 x double>, !dbg !2837
  %72 = fmul <4 x double> %41, %71, !dbg !2837
  %73 = fptrunc <4 x double> %72 to <4 x float>, !dbg !2837
  %74 = bitcast float* %68 to <4 x float>*, !dbg !2837
  store <4 x float> %73, <4 x float>* %74, align 4, !dbg !2837, !tbaa !1725, !alias.scope !2838, !noalias !2841
  %75 = getelementptr inbounds float, float* %29, i64 %67, !dbg !2843
  %76 = bitcast float* %75 to <4 x float>*, !dbg !2843
  %77 = load <4 x float>, <4 x float>* %76, align 4, !dbg !2843, !tbaa !1725, !alias.scope !2841
  %78 = fmul <4 x float> %43, %77, !dbg !2844
  %79 = fadd <4 x float> %78, %73, !dbg !2845
  %80 = bitcast float* %68 to <4 x float>*, !dbg !2845
  store <4 x float> %79, <4 x float>* %80, align 4, !dbg !2845, !tbaa !1725, !alias.scope !2838, !noalias !2841
  %81 = add i64 %52, 8, !dbg !2835
  %82 = add i64 %53, -2, !dbg !2835
  %83 = icmp eq i64 %82, 0, !dbg !2835
  br i1 %83, label %84, label %51, !dbg !2835, !llvm.loop !2846

84:                                               ; preds = %51, %38
  %85 = phi i64 [ 0, %38 ], [ %81, %51 ]
  %86 = icmp eq i64 %47, 0, !dbg !2835
  br i1 %86, label %101, label %87, !dbg !2835

87:                                               ; preds = %84
  %88 = getelementptr inbounds float, float* %27, i64 %85, !dbg !2836
  %89 = bitcast float* %88 to <4 x float>*, !dbg !2837
  %90 = load <4 x float>, <4 x float>* %89, align 4, !dbg !2837, !tbaa !1725, !alias.scope !2838, !noalias !2841
  %91 = fpext <4 x float> %90 to <4 x double>, !dbg !2837
  %92 = fmul <4 x double> %41, %91, !dbg !2837
  %93 = fptrunc <4 x double> %92 to <4 x float>, !dbg !2837
  %94 = bitcast float* %88 to <4 x float>*, !dbg !2837
  store <4 x float> %93, <4 x float>* %94, align 4, !dbg !2837, !tbaa !1725, !alias.scope !2838, !noalias !2841
  %95 = getelementptr inbounds float, float* %29, i64 %85, !dbg !2843
  %96 = bitcast float* %95 to <4 x float>*, !dbg !2843
  %97 = load <4 x float>, <4 x float>* %96, align 4, !dbg !2843, !tbaa !1725, !alias.scope !2841
  %98 = fmul <4 x float> %43, %97, !dbg !2844
  %99 = fadd <4 x float> %98, %93, !dbg !2845
  %100 = bitcast float* %88 to <4 x float>*, !dbg !2845
  store <4 x float> %99, <4 x float>* %100, align 4, !dbg !2845, !tbaa !1725, !alias.scope !2838, !noalias !2841
  br label %101, !dbg !2832

101:                                              ; preds = %84, %87
  %102 = icmp eq i64 %39, %30, !dbg !2832
  br i1 %102, label %118, label %103, !dbg !2832

103:                                              ; preds = %101, %32, %23
  %104 = phi i64 [ 0, %32 ], [ 0, %23 ], [ %39, %101 ]
  br label %105, !dbg !2832

105:                                              ; preds = %103, %105
  %106 = phi i64 [ %116, %105 ], [ %104, %103 ]
  call void @llvm.dbg.value(metadata i64 %106, metadata !2808, metadata !DIExpression()), !dbg !2810
  %107 = getelementptr inbounds float, float* %27, i64 %106, !dbg !2836
  %108 = load float, float* %107, align 4, !dbg !2837, !tbaa !1725
  %109 = fpext float %108 to double, !dbg !2837
  %110 = fmul double %25, %109, !dbg !2837
  %111 = fptrunc double %110 to float, !dbg !2837
  store float %111, float* %107, align 4, !dbg !2837, !tbaa !1725
  %112 = getelementptr inbounds float, float* %29, i64 %106, !dbg !2843
  %113 = load float, float* %112, align 4, !dbg !2843, !tbaa !1725
  %114 = fmul float %20, %113, !dbg !2844
  %115 = fadd float %114, %111, !dbg !2845
  store float %115, float* %107, align 4, !dbg !2845, !tbaa !1725
  %116 = add nuw nsw i64 %106, 1, !dbg !2835
  call void @llvm.dbg.value(metadata i64 %116, metadata !2808, metadata !DIExpression()), !dbg !2810
  %117 = icmp ult i64 %116, %30, !dbg !2831
  br i1 %117, label %105, label %118, !dbg !2832, !llvm.loop !2848

118:                                              ; preds = %105, %101
  %119 = load float, float* %17, align 8, !dbg !2849, !tbaa !1878
  %120 = load float, float* %15, align 8, !dbg !2850, !tbaa !1878
  %121 = fadd float %119, %120, !dbg !2850
  br label %122, !dbg !2849

122:                                              ; preds = %118, %14
  %123 = phi float [ %121, %118 ], [ %19, %14 ], !dbg !2850
  store float %123, float* %15, align 8, !dbg !2850, !tbaa !1878
  br label %124, !dbg !2851

124:                                              ; preds = %9, %122
  %125 = add nuw nsw i64 %10, 1, !dbg !2852
  call void @llvm.dbg.value(metadata i64 %125, metadata !2807, metadata !DIExpression()), !dbg !2810
  %126 = icmp slt i64 %125, %3, !dbg !2814
  br i1 %126, label %9, label %127, !dbg !2815, !llvm.loop !2853

127:                                              ; preds = %124, %1
  ret i32 0, !dbg !2855
}

; Function Attrs: nounwind uwtable
define dso_local void @_Z11copycentersP6PointsS0_Pll(%struct.Points* nocapture readonly %0, %struct.Points* nocapture %1, i64* nocapture %2, i64 %3) local_unnamed_addr #0 !dbg !2856 {
  call void @llvm.dbg.value(metadata %struct.Points* %0, metadata !2860, metadata !DIExpression()), !dbg !2867
  call void @llvm.dbg.value(metadata %struct.Points* %1, metadata !2861, metadata !DIExpression()), !dbg !2867
  call void @llvm.dbg.value(metadata i64* %2, metadata !2862, metadata !DIExpression()), !dbg !2867
  call void @llvm.dbg.value(metadata i64 %3, metadata !2863, metadata !DIExpression()), !dbg !2867
  %5 = getelementptr inbounds %struct.Points, %struct.Points* %0, i64 0, i32 0, !dbg !2868
  %6 = load i64, i64* %5, align 8, !dbg !2868, !tbaa !1750
  %7 = tail call noalias i8* @calloc(i64 %6, i64 1) #15, !dbg !2869
  call void @llvm.dbg.value(metadata i8* %7, metadata !2866, metadata !DIExpression()), !dbg !2867
  call void @llvm.dbg.value(metadata i64 0, metadata !2864, metadata !DIExpression()), !dbg !2867
  %8 = icmp sgt i64 %6, 0, !dbg !2870
  br i1 %8, label %12, label %9, !dbg !2873

9:                                                ; preds = %4
  %10 = getelementptr inbounds %struct.Points, %struct.Points* %1, i64 0, i32 0, !dbg !2874
  %11 = load i64, i64* %10, align 8, !dbg !2874, !tbaa !1750
  call void @llvm.dbg.value(metadata i64 %55, metadata !2865, metadata !DIExpression()), !dbg !2867
  call void @llvm.dbg.value(metadata i64 0, metadata !2864, metadata !DIExpression()), !dbg !2867
  br label %95, !dbg !2875

12:                                               ; preds = %4
  %13 = getelementptr inbounds %struct.Points, %struct.Points* %0, i64 0, i32 2, !dbg !2877
  %14 = load %struct.Point*, %struct.Point** %13, align 8, !dbg !2877, !tbaa !1764
  %15 = add i64 %6, -1, !dbg !2873
  %16 = and i64 %6, 3, !dbg !2873
  %17 = icmp ult i64 %15, 3, !dbg !2873
  br i1 %17, label %41, label %18, !dbg !2873

18:                                               ; preds = %12
  %19 = sub i64 %6, %16, !dbg !2873
  br label %20, !dbg !2873

20:                                               ; preds = %20, %18
  %21 = phi i64 [ 0, %18 ], [ %38, %20 ]
  %22 = phi i64 [ %19, %18 ], [ %39, %20 ]
  call void @llvm.dbg.value(metadata i64 %21, metadata !2864, metadata !DIExpression()), !dbg !2867
  %23 = getelementptr inbounds %struct.Point, %struct.Point* %14, i64 %21, i32 2, !dbg !2879
  %24 = load i64, i64* %23, align 8, !dbg !2879, !tbaa !1885
  %25 = getelementptr inbounds i8, i8* %7, i64 %24, !dbg !2880
  store i8 1, i8* %25, align 1, !dbg !2881, !tbaa !2099
  %26 = or i64 %21, 1, !dbg !2882
  call void @llvm.dbg.value(metadata i64 %26, metadata !2864, metadata !DIExpression()), !dbg !2867
  %27 = getelementptr inbounds %struct.Point, %struct.Point* %14, i64 %26, i32 2, !dbg !2879
  %28 = load i64, i64* %27, align 8, !dbg !2879, !tbaa !1885
  %29 = getelementptr inbounds i8, i8* %7, i64 %28, !dbg !2880
  store i8 1, i8* %29, align 1, !dbg !2881, !tbaa !2099
  %30 = or i64 %21, 2, !dbg !2882
  call void @llvm.dbg.value(metadata i64 %30, metadata !2864, metadata !DIExpression()), !dbg !2867
  %31 = getelementptr inbounds %struct.Point, %struct.Point* %14, i64 %30, i32 2, !dbg !2879
  %32 = load i64, i64* %31, align 8, !dbg !2879, !tbaa !1885
  %33 = getelementptr inbounds i8, i8* %7, i64 %32, !dbg !2880
  store i8 1, i8* %33, align 1, !dbg !2881, !tbaa !2099
  %34 = or i64 %21, 3, !dbg !2882
  call void @llvm.dbg.value(metadata i64 %34, metadata !2864, metadata !DIExpression()), !dbg !2867
  %35 = getelementptr inbounds %struct.Point, %struct.Point* %14, i64 %34, i32 2, !dbg !2879
  %36 = load i64, i64* %35, align 8, !dbg !2879, !tbaa !1885
  %37 = getelementptr inbounds i8, i8* %7, i64 %36, !dbg !2880
  store i8 1, i8* %37, align 1, !dbg !2881, !tbaa !2099
  %38 = add nuw nsw i64 %21, 4, !dbg !2882
  call void @llvm.dbg.value(metadata i64 %38, metadata !2864, metadata !DIExpression()), !dbg !2867
  %39 = add i64 %22, -4, !dbg !2873
  %40 = icmp eq i64 %39, 0, !dbg !2873
  br i1 %40, label %41, label %20, !dbg !2873, !llvm.loop !2883

41:                                               ; preds = %20, %12
  %42 = phi i64 [ 0, %12 ], [ %38, %20 ]
  %43 = icmp eq i64 %16, 0, !dbg !2873
  br i1 %43, label %53, label %44, !dbg !2873

44:                                               ; preds = %41, %44
  %45 = phi i64 [ %50, %44 ], [ %42, %41 ]
  %46 = phi i64 [ %51, %44 ], [ %16, %41 ]
  call void @llvm.dbg.value(metadata i64 %45, metadata !2864, metadata !DIExpression()), !dbg !2867
  %47 = getelementptr inbounds %struct.Point, %struct.Point* %14, i64 %45, i32 2, !dbg !2879
  %48 = load i64, i64* %47, align 8, !dbg !2879, !tbaa !1885
  %49 = getelementptr inbounds i8, i8* %7, i64 %48, !dbg !2880
  store i8 1, i8* %49, align 1, !dbg !2881, !tbaa !2099
  %50 = add nuw nsw i64 %45, 1, !dbg !2882
  call void @llvm.dbg.value(metadata i64 %50, metadata !2864, metadata !DIExpression()), !dbg !2867
  %51 = add i64 %46, -1, !dbg !2873
  %52 = icmp eq i64 %51, 0, !dbg !2873
  br i1 %52, label %53, label %44, !dbg !2873, !llvm.loop !2885

53:                                               ; preds = %44, %41
  %54 = getelementptr inbounds %struct.Points, %struct.Points* %1, i64 0, i32 0, !dbg !2874
  %55 = load i64, i64* %54, align 8, !dbg !2874, !tbaa !1750
  call void @llvm.dbg.value(metadata i64 %55, metadata !2865, metadata !DIExpression()), !dbg !2867
  call void @llvm.dbg.value(metadata i64 0, metadata !2864, metadata !DIExpression()), !dbg !2867
  br i1 %8, label %56, label %95, !dbg !2875

56:                                               ; preds = %53
  %57 = getelementptr inbounds %struct.Points, %struct.Points* %1, i64 0, i32 2, !dbg !2886
  %58 = getelementptr inbounds %struct.Points, %struct.Points* %0, i64 0, i32 2, !dbg !2886
  %59 = getelementptr inbounds %struct.Points, %struct.Points* %0, i64 0, i32 1, !dbg !2886
  br label %60, !dbg !2875

60:                                               ; preds = %56, %90
  %61 = phi i64 [ %6, %56 ], [ %91, %90 ]
  %62 = phi i64 [ 0, %56 ], [ %93, %90 ]
  %63 = phi i64 [ %55, %56 ], [ %92, %90 ]
  call void @llvm.dbg.value(metadata i64 %62, metadata !2864, metadata !DIExpression()), !dbg !2867
  call void @llvm.dbg.value(metadata i64 %63, metadata !2865, metadata !DIExpression()), !dbg !2867
  %64 = getelementptr inbounds i8, i8* %7, i64 %62, !dbg !2891
  %65 = load i8, i8* %64, align 1, !dbg !2891, !tbaa !2099, !range !2101
  %66 = icmp eq i8 %65, 0, !dbg !2891
  br i1 %66, label %90, label %67, !dbg !2892

67:                                               ; preds = %60
  %68 = load %struct.Point*, %struct.Point** %57, align 8, !dbg !2893, !tbaa !1764
  %69 = getelementptr inbounds %struct.Point, %struct.Point* %68, i64 %63, i32 1, !dbg !2894
  %70 = bitcast float** %69 to i8**, !dbg !2894
  %71 = load i8*, i8** %70, align 8, !dbg !2894, !tbaa !1826
  %72 = load %struct.Point*, %struct.Point** %58, align 8, !dbg !2895, !tbaa !1764
  %73 = getelementptr inbounds %struct.Point, %struct.Point* %72, i64 %62, i32 1, !dbg !2896
  %74 = bitcast float** %73 to i8**, !dbg !2896
  %75 = load i8*, i8** %74, align 8, !dbg !2896, !tbaa !1826
  %76 = load i32, i32* %59, align 8, !dbg !2897, !tbaa !1856
  %77 = sext i32 %76 to i64, !dbg !2898
  %78 = shl nsw i64 %77, 2, !dbg !2899
  tail call void @llvm.memcpy.p0i8.p0i8.i64(i8* align 4 %71, i8* align 4 %75, i64 %78, i1 false), !dbg !2900
  %79 = load %struct.Point*, %struct.Point** %58, align 8, !dbg !2901, !tbaa !1764
  %80 = getelementptr inbounds %struct.Point, %struct.Point* %79, i64 %62, i32 0, !dbg !2902
  %81 = bitcast float* %80 to i32*, !dbg !2902
  %82 = load i32, i32* %81, align 8, !dbg !2902, !tbaa !1878
  %83 = load %struct.Point*, %struct.Point** %57, align 8, !dbg !2903, !tbaa !1764
  %84 = getelementptr inbounds %struct.Point, %struct.Point* %83, i64 %63, !dbg !2904
  %85 = bitcast %struct.Point* %84 to i32*, !dbg !2905
  store i32 %82, i32* %85, align 8, !dbg !2905, !tbaa !1878
  %86 = add nsw i64 %62, %3, !dbg !2906
  %87 = getelementptr inbounds i64, i64* %2, i64 %63, !dbg !2907
  store i64 %86, i64* %87, align 8, !dbg !2908, !tbaa !1769
  %88 = add nsw i64 %63, 1, !dbg !2909
  call void @llvm.dbg.value(metadata i64 %88, metadata !2865, metadata !DIExpression()), !dbg !2867
  %89 = load i64, i64* %5, align 8, !dbg !2910, !tbaa !1750
  br label %90, !dbg !2911

90:                                               ; preds = %60, %67
  %91 = phi i64 [ %89, %67 ], [ %61, %60 ], !dbg !2910
  %92 = phi i64 [ %88, %67 ], [ %63, %60 ], !dbg !2867
  call void @llvm.dbg.value(metadata i64 %92, metadata !2865, metadata !DIExpression()), !dbg !2867
  %93 = add nuw nsw i64 %62, 1, !dbg !2912
  call void @llvm.dbg.value(metadata i64 %93, metadata !2864, metadata !DIExpression()), !dbg !2867
  %94 = icmp slt i64 %93, %91, !dbg !2913
  br i1 %94, label %60, label %95, !dbg !2875, !llvm.loop !2914

95:                                               ; preds = %90, %9, %53
  %96 = phi i64* [ %54, %53 ], [ %10, %9 ], [ %54, %90 ]
  %97 = phi i64 [ %55, %53 ], [ %11, %9 ], [ %92, %90 ], !dbg !2867
  call void @llvm.dbg.value(metadata i64 %97, metadata !2865, metadata !DIExpression()), !dbg !2867
  store i64 %97, i64* %96, align 8, !dbg !2916, !tbaa !1750
  tail call void @free(i8* %7) #15, !dbg !2917
  ret void, !dbg !2918
}

; Function Attrs: uwtable
define dso_local noalias i8* @_Z14localSearchSubPv(i8* nocapture readonly %0) #6 !dbg !2919 {
  call void @llvm.dbg.value(metadata i8* %0, metadata !2923, metadata !DIExpression()), !dbg !2925
  call void @llvm.dbg.value(metadata i8* %0, metadata !2924, metadata !DIExpression()), !dbg !2925
  %2 = bitcast i8* %0 to %struct.Points**, !dbg !2926
  %3 = load %struct.Points*, %struct.Points** %2, align 8, !dbg !2926, !tbaa !2927
  %4 = getelementptr inbounds i8, i8* %0, i64 8, !dbg !2929
  %5 = bitcast i8* %4 to i64*, !dbg !2929
  %6 = load i64, i64* %5, align 8, !dbg !2929, !tbaa !2930
  %7 = getelementptr inbounds i8, i8* %0, i64 16, !dbg !2931
  %8 = bitcast i8* %7 to i64*, !dbg !2931
  %9 = load i64, i64* %8, align 8, !dbg !2931, !tbaa !2932
  %10 = getelementptr inbounds i8, i8* %0, i64 24, !dbg !2933
  %11 = bitcast i8* %10 to i64**, !dbg !2933
  %12 = load i64*, i64** %11, align 8, !dbg !2933, !tbaa !2934
  %13 = getelementptr inbounds i8, i8* %0, i64 32, !dbg !2935
  %14 = bitcast i8* %13 to i32*, !dbg !2935
  %15 = load i32, i32* %14, align 8, !dbg !2935, !tbaa !2936
  %16 = getelementptr inbounds i8, i8* %0, i64 40, !dbg !2937
  %17 = bitcast i8* %16 to %union.pthread_barrier_t**, !dbg !2937
  %18 = load %union.pthread_barrier_t*, %union.pthread_barrier_t** %17, align 8, !dbg !2937, !tbaa !2938
  %19 = tail call float @_Z8pkmedianP6PointsllPliP17pthread_barrier_t(%struct.Points* %3, i64 %6, i64 %9, i64* %12, i32 %15, %union.pthread_barrier_t* %18), !dbg !2939
  ret i8* null, !dbg !2940
}

; Function Attrs: uwtable
define dso_local void @_Z11localSearchP6PointsllPl(%struct.Points* %0, i64 %1, i64 %2, i64* %3) local_unnamed_addr #6 !dbg !2941 {
  %5 = alloca %union.pthread_barrier_t, align 8
  call void @llvm.dbg.value(metadata %struct.Points* %0, metadata !2945, metadata !DIExpression()), !dbg !2958
  call void @llvm.dbg.value(metadata i64 %1, metadata !2946, metadata !DIExpression()), !dbg !2958
  call void @llvm.dbg.value(metadata i64 %2, metadata !2947, metadata !DIExpression()), !dbg !2958
  call void @llvm.dbg.value(metadata i64* %3, metadata !2948, metadata !DIExpression()), !dbg !2958
  %6 = bitcast %union.pthread_barrier_t* %5 to i8*, !dbg !2959
  call void @llvm.lifetime.start.p0i8(i64 32, i8* nonnull %6) #15, !dbg !2959
  call void @llvm.dbg.declare(metadata %union.pthread_barrier_t* %5, metadata !2949, metadata !DIExpression()), !dbg !2960
  %7 = load i32, i32* @_ZL5nproc, align 4, !dbg !2961, !tbaa !1801
  %8 = call i32 @pthread_barrier_init(%union.pthread_barrier_t* nonnull %5, %union.pthread_barrierattr_t* null, i32 %7) #15, !dbg !2962
  %9 = load i32, i32* @_ZL5nproc, align 4, !dbg !2963, !tbaa !1801
  %10 = sext i32 %9 to i64, !dbg !2963
  %11 = call { i64, i1 } @llvm.umul.with.overflow.i64(i64 %10, i64 8), !dbg !2964
  %12 = extractvalue { i64, i1 } %11, 1, !dbg !2964
  %13 = extractvalue { i64, i1 } %11, 0, !dbg !2964
  %14 = select i1 %12, i64 -1, i64 %13, !dbg !2964
  %15 = call i8* @_Znam(i64 %14) #16, !dbg !2964
  %16 = bitcast i8* %15 to i64*, !dbg !2964
  call void @llvm.dbg.value(metadata i64* %16, metadata !2950, metadata !DIExpression()), !dbg !2958
  %17 = call { i64, i1 } @llvm.umul.with.overflow.i64(i64 %10, i64 48), !dbg !2965
  %18 = extractvalue { i64, i1 } %17, 1, !dbg !2965
  %19 = extractvalue { i64, i1 } %17, 0, !dbg !2965
  %20 = select i1 %18, i64 -1, i64 %19, !dbg !2965
  %21 = call i8* @_Znam(i64 %20) #16, !dbg !2965
  %22 = bitcast i8* %21 to %struct.pkmedian_arg_t*, !dbg !2965
  call void @llvm.dbg.value(metadata %struct.pkmedian_arg_t* %22, metadata !2953, metadata !DIExpression()), !dbg !2958
  call void @llvm.dbg.value(metadata i32 0, metadata !2954, metadata !DIExpression()), !dbg !2966
  %23 = icmp sgt i32 %9, 0, !dbg !2967
  br i1 %23, label %26, label %52, !dbg !2969

24:                                               ; preds = %26
  call void @llvm.dbg.value(metadata i32 0, metadata !2956, metadata !DIExpression()), !dbg !2970
  %25 = icmp sgt i32 %40, 0, !dbg !2971
  br i1 %25, label %43, label %52, !dbg !2973

26:                                               ; preds = %4, %26
  %27 = phi i64 [ %39, %26 ], [ 0, %4 ]
  call void @llvm.dbg.value(metadata i64 %27, metadata !2954, metadata !DIExpression()), !dbg !2966
  %28 = getelementptr inbounds %struct.pkmedian_arg_t, %struct.pkmedian_arg_t* %22, i64 %27, !dbg !2974
  %29 = getelementptr inbounds %struct.pkmedian_arg_t, %struct.pkmedian_arg_t* %28, i64 0, i32 0, !dbg !2976
  store %struct.Points* %0, %struct.Points** %29, align 8, !dbg !2977, !tbaa !2927
  %30 = getelementptr inbounds %struct.pkmedian_arg_t, %struct.pkmedian_arg_t* %22, i64 %27, i32 1, !dbg !2978
  store i64 %1, i64* %30, align 8, !dbg !2979, !tbaa !2930
  %31 = getelementptr inbounds %struct.pkmedian_arg_t, %struct.pkmedian_arg_t* %22, i64 %27, i32 2, !dbg !2980
  store i64 %2, i64* %31, align 8, !dbg !2981, !tbaa !2932
  %32 = getelementptr inbounds %struct.pkmedian_arg_t, %struct.pkmedian_arg_t* %22, i64 %27, i32 4, !dbg !2982
  %33 = trunc i64 %27 to i32, !dbg !2983
  store i32 %33, i32* %32, align 8, !dbg !2983, !tbaa !2936
  %34 = getelementptr inbounds %struct.pkmedian_arg_t, %struct.pkmedian_arg_t* %22, i64 %27, i32 3, !dbg !2984
  store i64* %3, i64** %34, align 8, !dbg !2985, !tbaa !2934
  %35 = getelementptr inbounds %struct.pkmedian_arg_t, %struct.pkmedian_arg_t* %22, i64 %27, i32 5, !dbg !2986
  store %union.pthread_barrier_t* %5, %union.pthread_barrier_t** %35, align 8, !dbg !2987, !tbaa !2938
  %36 = getelementptr inbounds i64, i64* %16, i64 %27, !dbg !2988
  %37 = bitcast %struct.pkmedian_arg_t* %28 to i8*, !dbg !2989
  %38 = call i32 @pthread_create(i64* nonnull %36, %union.pthread_attr_t* null, i8* (i8*)* nonnull @_Z14localSearchSubPv, i8* nonnull %37) #15, !dbg !2990
  %39 = add nuw nsw i64 %27, 1, !dbg !2991
  call void @llvm.dbg.value(metadata i64 %39, metadata !2954, metadata !DIExpression()), !dbg !2966
  %40 = load i32, i32* @_ZL5nproc, align 4, !dbg !2992, !tbaa !1801
  %41 = sext i32 %40 to i64, !dbg !2967
  %42 = icmp slt i64 %39, %41, !dbg !2967
  br i1 %42, label %26, label %24, !dbg !2969, !llvm.loop !2993

43:                                               ; preds = %24, %43
  %44 = phi i64 [ %48, %43 ], [ 0, %24 ]
  call void @llvm.dbg.value(metadata i64 %44, metadata !2956, metadata !DIExpression()), !dbg !2970
  %45 = getelementptr inbounds i64, i64* %16, i64 %44, !dbg !2995
  %46 = load i64, i64* %45, align 8, !dbg !2995, !tbaa !1769
  %47 = call i32 @pthread_join(i64 %46, i8** null), !dbg !2997
  %48 = add nuw nsw i64 %44, 1, !dbg !2998
  call void @llvm.dbg.value(metadata i64 %48, metadata !2956, metadata !DIExpression()), !dbg !2970
  %49 = load i32, i32* @_ZL5nproc, align 4, !dbg !2999, !tbaa !1801
  %50 = sext i32 %49 to i64, !dbg !2971
  %51 = icmp slt i64 %48, %50, !dbg !2971
  br i1 %51, label %43, label %52, !dbg !2973, !llvm.loop !3000

52:                                               ; preds = %43, %4, %24
  call void @_ZdaPv(i8* nonnull %15) #17, !dbg !3002
  call void @_ZdaPv(i8* nonnull %21) #17, !dbg !3003
  %53 = call i32 @pthread_barrier_destroy(%union.pthread_barrier_t* nonnull %5) #15, !dbg !3004
  call void @llvm.lifetime.end.p0i8(i64 32, i8* nonnull %6) #15, !dbg !3005
  ret void, !dbg !3005
}

; Function Attrs: nounwind
declare !dbg !155 dso_local i32 @pthread_barrier_init(%union.pthread_barrier_t*, %union.pthread_barrierattr_t*, i32) local_unnamed_addr #5

; Function Attrs: nounwind readnone speculatable willreturn
declare { i64, i1 } @llvm.umul.with.overflow.i64(i64, i64) #2

; Function Attrs: nobuiltin nofree
declare dso_local noalias nonnull i8* @_Znam(i64) local_unnamed_addr #9

; Function Attrs: nounwind
declare !callback !3006 dso_local i32 @pthread_create(i64*, %union.pthread_attr_t*, i8* (i8*)*, i8*) local_unnamed_addr #5

declare !dbg !161 dso_local i32 @pthread_join(i64, i8**) local_unnamed_addr #7

; Function Attrs: nobuiltin nounwind
declare dso_local void @_ZdaPv(i8*) local_unnamed_addr #10

; Function Attrs: nounwind
declare !dbg !166 dso_local i32 @pthread_barrier_destroy(%union.pthread_barrier_t*) local_unnamed_addr #5

; Function Attrs: nounwind uwtable
define dso_local void @_Z12outcenterIDsP6PointsPlPc(%struct.Points* nocapture readonly %0, i64* nocapture readonly %1, i8* %2) local_unnamed_addr #0 !dbg !3008 {
  call void @llvm.dbg.value(metadata %struct.Points* %0, metadata !3012, metadata !DIExpression()), !dbg !3027
  call void @llvm.dbg.value(metadata i64* %1, metadata !3013, metadata !DIExpression()), !dbg !3027
  call void @llvm.dbg.value(metadata i8* %2, metadata !3014, metadata !DIExpression()), !dbg !3027
  %4 = tail call %struct._IO_FILE* @fopen(i8* %2, i8* getelementptr inbounds ([2 x i8], [2 x i8]* @.str, i64 0, i64 0)), !dbg !3028
  call void @llvm.dbg.value(metadata %struct._IO_FILE* %4, metadata !3015, metadata !DIExpression()), !dbg !3027
  %5 = icmp eq %struct._IO_FILE* %4, null, !dbg !3029
  br i1 %5, label %6, label %9, !dbg !3031

6:                                                ; preds = %3
  %7 = load %struct._IO_FILE*, %struct._IO_FILE** @stderr, align 8, !dbg !3032, !tbaa !1768
  %8 = tail call i32 (%struct._IO_FILE*, i8*, ...) @fprintf(%struct._IO_FILE* %7, i8* getelementptr inbounds ([18 x i8], [18 x i8]* @.str.1, i64 0, i64 0), i8* %2) #18, !dbg !3034
  tail call void @exit(i32 1) #19, !dbg !3035
  unreachable, !dbg !3035

9:                                                ; preds = %3
  %10 = getelementptr inbounds %struct.Points, %struct.Points* %0, i64 0, i32 0, !dbg !3036
  %11 = load i64, i64* %10, align 8, !dbg !3036, !tbaa !1750
  %12 = tail call noalias i8* @calloc(i64 4, i64 %11) #15, !dbg !3037
  %13 = bitcast i8* %12 to i32*, !dbg !3038
  call void @llvm.dbg.value(metadata i32* %13, metadata !3016, metadata !DIExpression()), !dbg !3027
  call void @llvm.dbg.value(metadata i32 0, metadata !3017, metadata !DIExpression()), !dbg !3039
  %14 = icmp sgt i64 %11, 0, !dbg !3040
  br i1 %14, label %15, label %60, !dbg !3042

15:                                               ; preds = %9
  %16 = getelementptr inbounds %struct.Points, %struct.Points* %0, i64 0, i32 2, !dbg !3043
  %17 = load %struct.Point*, %struct.Point** %16, align 8, !dbg !3043, !tbaa !1764
  %18 = add i64 %11, -1, !dbg !3042
  %19 = and i64 %11, 3, !dbg !3042
  %20 = icmp ult i64 %18, 3, !dbg !3042
  br i1 %20, label %23, label %21, !dbg !3042

21:                                               ; preds = %15
  %22 = sub i64 %11, %19, !dbg !3042
  br label %39, !dbg !3042

23:                                               ; preds = %39, %15
  %24 = phi i64 [ 0, %15 ], [ %57, %39 ]
  %25 = icmp eq i64 %19, 0, !dbg !3042
  br i1 %25, label %35, label %26, !dbg !3042

26:                                               ; preds = %23, %26
  %27 = phi i64 [ %32, %26 ], [ %24, %23 ]
  %28 = phi i64 [ %33, %26 ], [ %19, %23 ]
  call void @llvm.dbg.value(metadata i64 %27, metadata !3017, metadata !DIExpression()), !dbg !3039
  %29 = getelementptr inbounds %struct.Point, %struct.Point* %17, i64 %27, i32 2, !dbg !3045
  %30 = load i64, i64* %29, align 8, !dbg !3045, !tbaa !1885
  %31 = getelementptr inbounds i32, i32* %13, i64 %30, !dbg !3046
  store i32 1, i32* %31, align 4, !dbg !3047, !tbaa !1801
  %32 = add nuw nsw i64 %27, 1, !dbg !3048
  call void @llvm.dbg.value(metadata i64 %32, metadata !3017, metadata !DIExpression()), !dbg !3039
  %33 = add i64 %28, -1, !dbg !3042
  %34 = icmp eq i64 %33, 0, !dbg !3042
  br i1 %34, label %35, label %26, !dbg !3042, !llvm.loop !3049

35:                                               ; preds = %26, %23
  call void @llvm.dbg.value(metadata i32 0, metadata !3019, metadata !DIExpression()), !dbg !3050
  br i1 %14, label %36, label %60, !dbg !3051

36:                                               ; preds = %35
  %37 = getelementptr inbounds %struct.Points, %struct.Points* %0, i64 0, i32 2, !dbg !3052
  %38 = getelementptr inbounds %struct.Points, %struct.Points* %0, i64 0, i32 1, !dbg !3053
  br label %62, !dbg !3051

39:                                               ; preds = %39, %21
  %40 = phi i64 [ 0, %21 ], [ %57, %39 ]
  %41 = phi i64 [ %22, %21 ], [ %58, %39 ]
  call void @llvm.dbg.value(metadata i64 %40, metadata !3017, metadata !DIExpression()), !dbg !3039
  %42 = getelementptr inbounds %struct.Point, %struct.Point* %17, i64 %40, i32 2, !dbg !3045
  %43 = load i64, i64* %42, align 8, !dbg !3045, !tbaa !1885
  %44 = getelementptr inbounds i32, i32* %13, i64 %43, !dbg !3046
  store i32 1, i32* %44, align 4, !dbg !3047, !tbaa !1801
  %45 = or i64 %40, 1, !dbg !3048
  call void @llvm.dbg.value(metadata i64 %45, metadata !3017, metadata !DIExpression()), !dbg !3039
  %46 = getelementptr inbounds %struct.Point, %struct.Point* %17, i64 %45, i32 2, !dbg !3045
  %47 = load i64, i64* %46, align 8, !dbg !3045, !tbaa !1885
  %48 = getelementptr inbounds i32, i32* %13, i64 %47, !dbg !3046
  store i32 1, i32* %48, align 4, !dbg !3047, !tbaa !1801
  %49 = or i64 %40, 2, !dbg !3048
  call void @llvm.dbg.value(metadata i64 %49, metadata !3017, metadata !DIExpression()), !dbg !3039
  %50 = getelementptr inbounds %struct.Point, %struct.Point* %17, i64 %49, i32 2, !dbg !3045
  %51 = load i64, i64* %50, align 8, !dbg !3045, !tbaa !1885
  %52 = getelementptr inbounds i32, i32* %13, i64 %51, !dbg !3046
  store i32 1, i32* %52, align 4, !dbg !3047, !tbaa !1801
  %53 = or i64 %40, 3, !dbg !3048
  call void @llvm.dbg.value(metadata i64 %53, metadata !3017, metadata !DIExpression()), !dbg !3039
  %54 = getelementptr inbounds %struct.Point, %struct.Point* %17, i64 %53, i32 2, !dbg !3045
  %55 = load i64, i64* %54, align 8, !dbg !3045, !tbaa !1885
  %56 = getelementptr inbounds i32, i32* %13, i64 %55, !dbg !3046
  store i32 1, i32* %56, align 4, !dbg !3047, !tbaa !1801
  %57 = add nuw nsw i64 %40, 4, !dbg !3048
  call void @llvm.dbg.value(metadata i64 %57, metadata !3017, metadata !DIExpression()), !dbg !3039
  %58 = add i64 %41, -4, !dbg !3042
  %59 = icmp eq i64 %58, 0, !dbg !3042
  br i1 %59, label %23, label %39, !dbg !3042, !llvm.loop !3055

60:                                               ; preds = %95, %9, %35
  %61 = tail call i32 @fclose(%struct._IO_FILE* nonnull %4), !dbg !3057
  ret void, !dbg !3058

62:                                               ; preds = %36, %95
  %63 = phi i64 [ %11, %36 ], [ %96, %95 ]
  %64 = phi i64 [ 0, %36 ], [ %97, %95 ]
  call void @llvm.dbg.value(metadata i64 %64, metadata !3019, metadata !DIExpression()), !dbg !3050
  %65 = getelementptr inbounds i32, i32* %13, i64 %64, !dbg !3059
  %66 = load i32, i32* %65, align 4, !dbg !3059, !tbaa !1801
  %67 = icmp eq i32 %66, 0, !dbg !3059
  br i1 %67, label %95, label %68, !dbg !3060

68:                                               ; preds = %62
  %69 = getelementptr inbounds i64, i64* %1, i64 %64, !dbg !3061
  %70 = load i64, i64* %69, align 8, !dbg !3061, !tbaa !1769
  %71 = tail call i32 (%struct._IO_FILE*, i8*, ...) @fprintf(%struct._IO_FILE* nonnull %4, i8* getelementptr inbounds ([4 x i8], [4 x i8]* @.str.2, i64 0, i64 0), i64 %70), !dbg !3062
  %72 = load %struct.Point*, %struct.Point** %37, align 8, !dbg !3063, !tbaa !1764
  %73 = getelementptr inbounds %struct.Point, %struct.Point* %72, i64 %64, i32 0, !dbg !3064
  %74 = load float, float* %73, align 8, !dbg !3064, !tbaa !1878
  %75 = fpext float %74 to double, !dbg !3065
  %76 = tail call i32 (%struct._IO_FILE*, i8*, ...) @fprintf(%struct._IO_FILE* nonnull %4, i8* getelementptr inbounds ([5 x i8], [5 x i8]* @.str.3, i64 0, i64 0), double %75), !dbg !3066
  call void @llvm.dbg.value(metadata i32 0, metadata !3021, metadata !DIExpression()), !dbg !3067
  %77 = load i32, i32* %38, align 8, !dbg !3068, !tbaa !1856
  %78 = icmp sgt i32 %77, 0, !dbg !3069
  br i1 %78, label %82, label %79, !dbg !3070

79:                                               ; preds = %82, %68
  %80 = tail call i64 @fwrite_unlocked(i8* getelementptr inbounds ([3 x i8], [3 x i8]* @.str.5, i64 0, i64 0), i64 2, i64 1, %struct._IO_FILE* nonnull %4), !dbg !3071
  %81 = load i64, i64* %10, align 8, !dbg !3072, !tbaa !1750
  br label %95, !dbg !3073

82:                                               ; preds = %68, %82
  %83 = phi i64 [ %91, %82 ], [ 0, %68 ]
  call void @llvm.dbg.value(metadata i64 %83, metadata !3021, metadata !DIExpression()), !dbg !3067
  %84 = load %struct.Point*, %struct.Point** %37, align 8, !dbg !3074, !tbaa !1764
  %85 = getelementptr inbounds %struct.Point, %struct.Point* %84, i64 %64, i32 1, !dbg !3076
  %86 = load float*, float** %85, align 8, !dbg !3076, !tbaa !1826
  %87 = getelementptr inbounds float, float* %86, i64 %83, !dbg !3077
  %88 = load float, float* %87, align 4, !dbg !3077, !tbaa !1725
  %89 = fpext float %88 to double, !dbg !3077
  %90 = tail call i32 (%struct._IO_FILE*, i8*, ...) @fprintf(%struct._IO_FILE* nonnull %4, i8* getelementptr inbounds ([5 x i8], [5 x i8]* @.str.4, i64 0, i64 0), double %89), !dbg !3078
  %91 = add nuw nsw i64 %83, 1, !dbg !3079
  call void @llvm.dbg.value(metadata i64 %91, metadata !3021, metadata !DIExpression()), !dbg !3067
  %92 = load i32, i32* %38, align 8, !dbg !3068, !tbaa !1856
  %93 = sext i32 %92 to i64, !dbg !3069
  %94 = icmp slt i64 %91, %93, !dbg !3069
  br i1 %94, label %82, label %79, !dbg !3070, !llvm.loop !3080

95:                                               ; preds = %62, %79
  %96 = phi i64 [ %63, %62 ], [ %81, %79 ], !dbg !3072
  %97 = add nuw nsw i64 %64, 1, !dbg !3082
  call void @llvm.dbg.value(metadata i64 %97, metadata !3019, metadata !DIExpression()), !dbg !3050
  %98 = icmp sgt i64 %96, %97, !dbg !3083
  br i1 %98, label %62, label %60, !dbg !3051, !llvm.loop !3084
}

; Function Attrs: nofree nounwind
declare dso_local noalias %struct._IO_FILE* @fopen(i8* nocapture readonly, i8* nocapture readonly) local_unnamed_addr #3

; Function Attrs: nofree nounwind
declare dso_local i32 @fprintf(%struct._IO_FILE* nocapture, i8* nocapture readonly, ...) local_unnamed_addr #3

; Function Attrs: noreturn nounwind
declare dso_local void @exit(i32) local_unnamed_addr #11

; Function Attrs: nofree nounwind
declare !dbg !167 dso_local i32 @fclose(%struct._IO_FILE* nocapture) local_unnamed_addr #3

; Function Attrs: uwtable
define dso_local void @_Z13streamClusterP7PStreamllillPc(%class.PStream* %0, i64 %1, i64 %2, i32 %3, i64 %4, i64 %5, i8* %6) local_unnamed_addr #6 !dbg !3086 {
  %8 = alloca %struct.Points, align 8
  %9 = alloca %struct.Points, align 8
  %10 = alloca i64, align 8
  call void @llvm.dbg.value(metadata %class.PStream* %0, metadata !3107, metadata !DIExpression()), !dbg !3129
  call void @llvm.dbg.value(metadata i64 %1, metadata !3108, metadata !DIExpression()), !dbg !3129
  call void @llvm.dbg.value(metadata i64 %2, metadata !3109, metadata !DIExpression()), !dbg !3129
  call void @llvm.dbg.value(metadata i32 %3, metadata !3110, metadata !DIExpression()), !dbg !3129
  call void @llvm.dbg.value(metadata i64 %4, metadata !3111, metadata !DIExpression()), !dbg !3129
  call void @llvm.dbg.value(metadata i64 %5, metadata !3112, metadata !DIExpression()), !dbg !3129
  call void @llvm.dbg.value(metadata i8* %6, metadata !3113, metadata !DIExpression()), !dbg !3129
  %11 = sext i32 %3 to i64, !dbg !3130
  %12 = shl i64 %4, 2, !dbg !3131
  %13 = mul i64 %12, %11, !dbg !3132
  %14 = tail call noalias i8* @malloc(i64 %13) #15, !dbg !3133
  %15 = bitcast i8* %14 to float*, !dbg !3134
  call void @llvm.dbg.value(metadata float* %15, metadata !3114, metadata !DIExpression()), !dbg !3129
  %16 = mul nsw i64 %11, %5, !dbg !3135
  %17 = shl i64 %16, 2, !dbg !3136
  %18 = tail call noalias i8* @malloc(i64 %17) #15, !dbg !3137
  %19 = bitcast i8* %18 to float*, !dbg !3138
  call void @llvm.dbg.value(metadata float* %19, metadata !3115, metadata !DIExpression()), !dbg !3129
  %20 = shl i64 %16, 3, !dbg !3139
  %21 = tail call noalias i8* @malloc(i64 %20) #15, !dbg !3140
  %22 = bitcast i8* %21 to i64*, !dbg !3141
  call void @llvm.dbg.value(metadata i64* %22, metadata !3116, metadata !DIExpression()), !dbg !3129
  %23 = icmp eq i8* %14, null, !dbg !3142
  br i1 %23, label %24, label %27, !dbg !3144

24:                                               ; preds = %7
  %25 = load %struct._IO_FILE*, %struct._IO_FILE** @stderr, align 8, !dbg !3145, !tbaa !1768
  %26 = tail call i64 @fwrite(i8* getelementptr inbounds ([32 x i8], [32 x i8]* @.str.6, i64 0, i64 0), i64 31, i64 1, %struct._IO_FILE* %25) #18, !dbg !3147
  tail call void @exit(i32 1) #19, !dbg !3148
  unreachable, !dbg !3148

27:                                               ; preds = %7
  %28 = bitcast %struct.Points* %8 to i8*, !dbg !3149
  call void @llvm.lifetime.start.p0i8(i64 24, i8* nonnull %28) #15, !dbg !3149
  call void @llvm.dbg.declare(metadata %struct.Points* %8, metadata !3117, metadata !DIExpression()), !dbg !3150
  %29 = getelementptr inbounds %struct.Points, %struct.Points* %8, i64 0, i32 1, !dbg !3151
  store i32 %3, i32* %29, align 8, !dbg !3152, !tbaa !1856
  %30 = getelementptr inbounds %struct.Points, %struct.Points* %8, i64 0, i32 0, !dbg !3153
  store i64 %4, i64* %30, align 8, !dbg !3154, !tbaa !1750
  %31 = shl i64 %4, 5, !dbg !3155
  %32 = tail call noalias i8* @malloc(i64 %31) #15, !dbg !3156
  %33 = getelementptr inbounds %struct.Points, %struct.Points* %8, i64 0, i32 2, !dbg !3157
  %34 = bitcast %struct.Point** %33 to i8**, !dbg !3158
  store i8* %32, i8** %34, align 8, !dbg !3158, !tbaa !1764
  call void @llvm.dbg.value(metadata i32 0, metadata !3118, metadata !DIExpression()), !dbg !3159
  %35 = icmp sgt i64 %4, 0, !dbg !3160
  %36 = bitcast i8* %32 to %struct.Point*, !dbg !3162
  br i1 %35, label %37, label %55, !dbg !3162

37:                                               ; preds = %27
  %38 = add i64 %4, -1, !dbg !3162
  %39 = and i64 %4, 3, !dbg !3162
  %40 = icmp ult i64 %38, 3, !dbg !3162
  br i1 %40, label %43, label %41, !dbg !3162

41:                                               ; preds = %37
  %42 = sub i64 %4, %39, !dbg !3162
  br label %70, !dbg !3162

43:                                               ; preds = %70, %37
  %44 = phi i64 [ 0, %37 ], [ %88, %70 ]
  %45 = icmp eq i64 %39, 0, !dbg !3162
  br i1 %45, label %55, label %46, !dbg !3162

46:                                               ; preds = %43, %46
  %47 = phi i64 [ %52, %46 ], [ %44, %43 ]
  %48 = phi i64 [ %53, %46 ], [ %39, %43 ]
  call void @llvm.dbg.value(metadata i64 %47, metadata !3118, metadata !DIExpression()), !dbg !3159
  %49 = mul nsw i64 %47, %11, !dbg !3163
